


ARM Macro Assembler    Page 1 Program Title for Listing Header Goes Here


    1 00000000                 TTL              Program Title for Listing Heade
r Goes Here
    2 00000000         ;*******************************************************
                       *********
    3 00000000         ;This exercise implements GetChar and PutChar using an i
                       nterrupt service routine
    4 00000000         ;Name:  Lauren Giannotti
    5 00000000         ;Date:  04/06/2015
    6 00000000         ;Class:  CMPE-250
    7 00000000         ;Section:  Lab 2, Monday, 6:00 PM
    8 00000000         ;-------------------------------------------------------
                       --------
    9 00000000         ;Keil Template for KL46
   10 00000000         ;R. W. Melton
   11 00000000         ;February 16, 2015
   12 00000000         ;*******************************************************
                       *********
   13 00000000         ;Assembler directives
   14 00000000                 THUMB
   16 00000000         ;*******************************************************
                       *********
   17 00000000         ;Include files
   18 00000000                 GET              MKL46Z4.s   ;Included by start.
                                                            s
   20 00000000         ;*******************************************************
                       *********
   21 00000000         ;EQUates
   22 00000000 00000000 
                       IN_PTR  EQU              0
   23 00000000 00000004 
                       OUT_PTR EQU              4
   24 00000000 00000008 
                       BUF_STRT
                               EQU              8
   25 00000000 0000000C 
                       BUF_PAST
                               EQU              12
   26 00000000 00000010 
                       BUF_SIZE
                               EQU              16
   27 00000000 00000011 
                       NUM_ENQD
                               EQU              17
   28 00000000 00000050 
                       Q_BUF_SZ
                               EQU              80
   29 00000000 00000012 
                       Q_REC_SZ
                               EQU              18
   30 00000000 00000061 
                       min_lowercase
                               EQU              97          ;lowercase letters 
                                                            start at ascii valu
                                                            e 97
   31 00000000 0000007A 
                       max_lowercase
                               EQU              122         ;lowercase letters 
                                                            have highest ascii 
                                                            value of 122



ARM Macro Assembler    Page 2 Program Title for Listing Header Goes Here


   32 00000000 0000004F 
                       MAX_STRING
                               EQU              79          ;max length of the 
                                                            string 
   33 00000000 0000000D 
                       CR      EQU              0x0D        ;carriage return
   34 00000000 0000000A 
                       LF      EQU              0x0A        ;live feed
   35 00000000         ;UART_C2_T_RI EQU UART_C2_RIE_MASK :OR: UART_C2_TE_MASK 
                       :OR: UART_C2_RE_MASK
   36 00000000 00000003 
                       UART1_IRQ_PRI
                               EQU              3
   37 00000000         
   38 00000000 0000002C 
                       UART_C2_T_RI
                               EQU              (UART_C2_RIE_MASK :OR: UART_C2_
RE_MASK :OR: UART_C2_TE_MASK) 
                                                            ;enable everything 
                                                            except the TIE
   39 00000000 000000AC 
                       UART_C2_TI_RI
                               EQU              (UART_C2_RIE_MASK :OR: UART_C2_
TIE_MASK :OR: UART_C2_RE_MASK :OR: UART_C2_TE_MASK ) 
                                                            ;enable everyting i
                                                            ncluding the interr
                                                            upt mask
   40 00000000         
   41 00000000 00000001 
                       PIT_MCR_EN_FRZ
                               EQU              PIT_MCR_FRZ_MASK
   42 00000000 0003A97F 
                       PIT_LDVAL_10ms
                               EQU              239999
   43 00000000 00000003 
                       PIT_TCTRL_CH_IE
                               EQU              (PIT_TCTRL_TIE_MASK :OR: PIT_TC
TRL_TEN_MASK)
   44 00000000 00000000 
                       PIT_IRQ_PRI
                               EQU              0
   45 00000000         
   46 00000000         
   47 00000000         ;Port D
   48 00000000 00000100 
                       PTD5_MUX_GPIO
                               EQU              (1 << PORT_PCR_MUX_SHIFT)
   49 00000000 01000100 
                       SET_PTD5_GPIO
                               EQU              (PORT_PCR_ISF_MASK :OR: PTD5_MU
X_GPIO)
   50 00000000         ;Port E
   51 00000000 00000100 
                       PTE29_MUX_GPIO
                               EQU              (1 << PORT_PCR_MUX_SHIFT)
   52 00000000 01000100 
                       SET_PTE29_GPIO
                               EQU              (PORT_PCR_ISF_MASK :OR: PTE29_M
UX_GPIO)



ARM Macro Assembler    Page 3 Program Title for Listing Header Goes Here


   53 00000000         
   54 00000000 0000001D 
                       POS_RED EQU              29
   55 00000000 00000005 
                       POS_GREEN
                               EQU              5
   56 00000000 20000000 
                       LED_RED_MASK
                               EQU              (1 << POS_RED)
   57 00000000 00000020 
                       LED_GREEN_MASK
                               EQU              (1 << POS_GREEN)
   58 00000000 00000020 
                       LED_PORTD_MASK
                               EQU              LED_GREEN_MASK
   59 00000000 20000000 
                       LED_PORTE_MASK
                               EQU              LED_RED_MASK
   60 00000000         
   61 00000000         ;-------------------------------------------------------
                       --------
   62 00000000         ;PORTx_PCRn (Port x pin control register n [for pin n])
   63 00000000         ;___->10-08:Pin mux control (select 0 to 8)
   64 00000000 00000300 
                       PORT_PCR_PIN_MUX_SELECT_3
                               EQU              0x00000300
   65 00000000         ;-------------------------------------------------------
                       --------
   66 00000000         ;Port E
   67 00000000 00000300 
                       PORT_PCR_PTE0_MUX_UART1_TX
                               EQU              PORT_PCR_MUX_SELECT_3_MASK
   68 00000000 00000300 
                       PORT_PCR_PTE1_MUX_UART1_RX
                               EQU              PORT_PCR_MUX_SELECT_3_MASK
   70 00000000 01000300 
                       PORT_PCR_SET_PTE0_UART1_TX
                               EQU              (PORT_PCR_ISF_MASK :OR: PORT_PC
R_PTE0_MUX_UART1_TX)
   72 00000000 01000300 
                       PORT_PCR_SET_PTE1_UART1_RX
                               EQU              (PORT_PCR_ISF_MASK :OR: PORT_PC
R_PTE1_MUX_UART1_RX)
   73 00000000         ;-------------------------------------------------------
                       --------
   74 00000000         ;SIM_SCGC4
   75 00000000         ;1->11:UART1 clock gate control (enabled)
   76 00000000 00000800 
                       SIM_SCGC4_UART1CGC_MASK
                               EQU              SIM_SCGC4_UART1_MASK
   77 00000000         ;-------------------------------------------------------
                       --------
   78 00000000         ;SIM_SCGC5
   79 00000000         ;1->   13:Port E clock gate control (enabled)
   80 00000000 00002000 
                       SIM_SCGC5_PORTECGC_MASK
                               EQU              SIM_SCGC5_PORTE_MASK
   81 00000000         ;-------------------------------------------------------
                       --------



ARM Macro Assembler    Page 4 Program Title for Listing Header Goes Here


   82 00000000         ;SIM_SOPT5
   83 00000000         ; 0->   17:UART1 open drain enable (disabled)
   84 00000000         ; 0->   06:UART1 receive data select (UART1_RX)
   85 00000000         ;00->05-04:UART1 transmit data select source (UART1_TX)
   87 00000000 00020070 
                       SIM_SOPT5_UART1_EXTERN_MASK_CLEAR
                               EQU              (SIM_SOPT5_UART1ODE_MASK      
:OR: SIM_SOPT5_UART1RXSRC_MASK :OR: SIM_SOPT5_UART1TXSRC_MASK)
   88 00000000         ;-------------------------------------------------------
                       --------
   89 00000000         ;UARTx_BDH
   90 00000000         ;    0->  7:LIN break detect IE (disabled)
   91 00000000         ;    0->  6:RxD input active edge IE (disabled)
   92 00000000         ;    0->  5:Stop bit number select (1)
   93 00000000         ;00000->4-0:SBR[12:0] (BUSCLK / (16 x 9600))
   94 00000000         ;BUSCLK = CORECLK / 2 = PLLCLK / 4
   95 00000000         ;PLLCLK is 96 MHz
   96 00000000         ;BUSCLK is 24 MHz
   97 00000000         ;SBR = 24 MHz / (16 x 9600) = 156.25 --> 156 = 0x009C
   98 00000000 00000000 
                       UART_BDH_9600
                               EQU              0
   99 00000000         ;-------------------------------------------------------
                       --------
  100 00000000         ;UARTx_BDL
  101 00000000         ;26->7-0:SBR[7:0] (BUSCLK / 16 x 9600))
  102 00000000         ;BUSCLK = CORECLK / 2 = PLLCLK / 4
  103 00000000         ;PLLCLK is 96 MHz
  104 00000000         ;BUSCLK is 24 MHz
  105 00000000         ;SBR = 24 MHz / (16 x 9600) = 156.25 --> 0x9C
  106 00000000 0000009C 
                       UART_BDL_9600
                               EQU              156
  107 00000000         ;-------------------------------------------------------
                       --------
  108 00000000         ;UARTx_C1
  109 00000000         ;0-->7:LOOPS=loops select (normal)
  110 00000000         ;0-->6:UARTSWAI=UART stop in wait mode (disabled)
  111 00000000         ;0-->5:RSRC=receiver source select (internal--no effect 
                       LOOPS=0)
  112 00000000         ;0-->4:M=9- or 8-bit mode select (1 start, 8 data [lsb f
                       irst], 1 stop)
  113 00000000         ;0-->3:WAKE=receiver wakeup method select (idle)
  114 00000000         ;0-->2:IDLE=idle line type select (idle begins after sta
                       rt bit)
  115 00000000         ;0-->1:PE=parity enable (disabled)
  116 00000000         ;0-->0:PT=parity type (even parity--no effect PE=0)
  117 00000000 00000000 
                       UART_C1_8N1
                               EQU              0x00
  118 00000000         ;-------------------------------------------------------
                       --------
  119 00000000         ;UARTx_C2
  120 00000000         ;0-->7:TIE=transmit IE for TDRE (disabled)
  121 00000000         ;0-->6:TCIE=trasmission complete IE for TC (disabled)
  122 00000000         ;0-->5:RIE=receiver IE for RDRF (disabled)
  123 00000000         ;0-->4:ILIE=idle line IE for IDLE (disabled)
  124 00000000         ;1-->3:TE=transmitter enable (enabled)
  125 00000000         ;1-->2:RE=receiver enable (enabled)



ARM Macro Assembler    Page 5 Program Title for Listing Header Goes Here


  126 00000000         ;0-->1:RWU=receiver wakeup control (normal)
  127 00000000         ;0-->0:SBK=send break (disabled, normal)
  128 00000000 0000000C 
                       UART_C2_T_R
                               EQU              (UART_C2_TE_MASK :OR: UART_C2_R
E_MASK)
  129 00000000         ;-------------------------------------------------------
                       --------
  130 00000000         ;UARTx_C3
  131 00000000         ;0-->7:R8=9th data bit for receiver (not used M=0)
  132 00000000         ;0-->6:T8=9th data bit for transmitter (not used M=0)
  133 00000000         ;0-->5:TXDIR=TxD pin direction in single-wire mode (no e
                       ffect LOOPS=0)
  134 00000000         ;0-->4:TXINV=transmit data inversion (not invereted)
  135 00000000         ;0-->3:ORIE=overrun IE for OR (disabled)
  136 00000000         ;0-->2:NEIE=noise error IE for NF (disabled)
  137 00000000         ;0-->1:FEIE=framing error IE for FE (disabled)
  138 00000000         ;0-->0:PEIE=parity error IE for PF (disabled)
  139 00000000 00000000 
                       UART_C3_NO_TXINV
                               EQU              0x00
  140 00000000         ;-------------------------------------------------------
                       --------
  141 00000000         ;UARTx_C4
  142 00000000         ;0-->  7:TDMAS=transmitter DMA select (disabled)
  143 00000000         ;0-->  6:Reserved; read-only; always 0
  144 00000000         ;0-->  5:RDMAS=receiver full DMA select (disabled)
  145 00000000         ;0-->  4:Reserved; read-only; always 0
  146 00000000         ;0-->  3:Reserved; read-only; always 0
  147 00000000         ;0-->2-0:Reserved; read-only; always 0
  148 00000000 00000000 
                       UART_C4_NO_DMA
                               EQU              0x00
  149 00000000         ;-------------------------------------------------------
                       --------
  150 00000000         ;UARTx_S2
  151 00000000         ;0-->7:LBKDIF=LIN break detect interrupt flag
  152 00000000         ;0-->6:RXEDGIF=RxD pin active edge interrupt flag
  153 00000000         ;0-->5:(reserved);read-only; always 0
  154 00000000         ;0-->4:RXINV=receive data inversion (disabled)
  155 00000000         ;0-->3:RWUID=receive wake-up idle detect
  156 00000000         ;0-->2:BRK13=break character generation length (10)
  157 00000000         ;0-->1:LBKDE=LIN break detect enable (disabled)
  158 00000000         ;0-->0:RAF=receiver active flag
  159 00000000 00000000 
                       UART_S2_NO_RXINV_BRK10_NO_LBKDETECT
                               EQU              0x00
  160 00000000         ;-------------------------------------------------------
                       --------
  161 00000000         
  162 00000000         
  163 00000000         
  164 00000000         ;*******************************************************
                       *********
  165 00000000         ;Program
  166 00000000         ;Linker requires Reset_Handler
  167 00000000                 AREA             MyCode,CODE,READONLY
  168 00000000                 ENTRY
  169 00000000                 EXPORT           Reset_Handler



ARM Macro Assembler    Page 6 Program Title for Listing Header Goes Here


  170 00000000                 IMPORT           Startup
  171 00000000         Reset_Handler
  172 00000000         main
  173 00000000         ;-------------------------------------------------------
                       --------
  174 00000000         ;Mask interrupts
  175 00000000 B672            CPSID            I
  176 00000002         ;KL46 system startup with 48-MHz system clock
  177 00000002 F7FF FFFE       BL               Startup
  178 00000006         ;-------------------------------------------------------
                       --------
  179 00000006         ;>>>>> begin main program code <<<<<
  180 00000006         
  181 00000006 F000 F8DA       BL               Initialize_Queue_Record
  182 0000000A F000 FA4C       BL               Init_UART1  ;initailize UART Mo
                                                            dule
  183 0000000E F000 FA3B       BL               NVIC        ;Initialize NVIC In
                                                            terrupts
  184 00000012 F000 FA6F       BL               Init_PIT    ;Initialize PIT Mod
                                                            ule
  185 00000016 F000 F9A0       BL               InitPortDandE ;Initialize ports
                                                             D and E
  186 0000001A F000 F9A6       BL               LED_Init    ;Initialze LED comp
                                                            onents
  187 0000001E F000 F993       BL               PDDR        ;Initialize PDDR Mo
                                                            dule
  188 00000022 B662            CPSIE            I           ;enable interrupts
  189 00000024         
  190 00000024         start
  191 00000024 2400            MOVS             R4,#0       ;initialize game ro
                                                            und
  192 00000026 4832            LDR              R0,=Score   ;load into R0 the a
                                                            ddress of score
  193 00000028 6004            STR              R4,[R0,#0]  ;store 0 in Score v
                                                            ariable
  194 0000002A         
  195 0000002A F000 F9B3       BL               Green_off   ;turn the green LED
                                                             off
  196 0000002E F000 F9AB       BL               Red_off     ;turn the red LED o
                                                            ff
  197 00000032         
  198 00000032 4830            LDR              R0,=RunStopWatch ;timer depends
                                                             on user delay
  199 00000034 2101            MOVS             R1,#1
  200 00000036 7001            STRB             R1,[R0,#0]  ;turn the Stop Watc
                                                            h (PIT interrupt co
                                                            unter) on 
  201 00000038         
  202 00000038 F000 F876       BL               newline     ;render a new line 
                                                            to user
  203 0000003C         
  204 0000003C 482E            LDR              R0,=instruction_1
  205 0000003E F000 F977       BL               PutString
  206 00000042         
  207 00000042 F000 F871       BL               newline
  208 00000046         
  209 00000046 482D            LDR              R0,=instruction_2
  210 00000048 F000 F972       BL               PutString
  211 0000004C         



ARM Macro Assembler    Page 7 Program Title for Listing Header Goes Here


  212 0000004C F000 F86C       BL               newline
  213 00000050         
  214 00000050 482B            LDR              R0,=prompt  ;enter a key to sta
                                                            rt the game
  215 00000052 F000 F96D       BL               PutString   ;display the prompt
                                                             via the terminal
  216 00000056 F000 F867       BL               newline     ;render a new line 
                                                            to the user
  217 0000005A F000 F9B2       BL               GetChar     ;accept user input
  218 0000005E         
  219 0000005E         round
  220 0000005E         ;below segment will generate a random number {0-3} used 
                       to simulate randomness
  221 0000005E 4829            LDR              R0,=Count
  222 00000060 0002            MOVS             R2,R0       ;save count address
                                                            
  223 00000062 6800            LDR              R0,[R0,#0]  ;get value
  224 00000064 2103            MOVS             R1,#3       ;mask of 11 (last t
                                                            wo bits)
  225 00000066 4001            ANDS             R1,R1,R0    ;mod by 4
  226 00000068 2000            MOVS             R0,#0
  227 0000006A 6010            STR              R0,[R2,#0]  ;initialize count t
                                                            o 0
  228 0000006C         
  229 0000006C         ;contents of R1 contain 'Random' number => {0-3}
  230 0000006C         ;configure LED combinations accordingly
  231 0000006C 2900            CMP              R1,#0
  232 0000006E D005            BEQ              neither_setup
  233 00000070         
  234 00000070 2901            CMP              R1,#1
  235 00000072 D00A            BEQ              both_setup
  236 00000074         
  237 00000074 2902            CMP              R1,#2
  238 00000076 D00F            BEQ              red_setup
  239 00000078         
  240 00000078 2903            CMP              R1,#3
  241 0000007A D014            BEQ              green_setup
  242 0000007C         
  243 0000007C         neither_setup
  244 0000007C         ;configure LED's such that neither LED's are on
  245 0000007C F000 F984       BL               Red_off
  246 00000080 F000 F988       BL               Green_off
  247 00000084 4A20            LDR              R2,=neither ;setup input parame
                                                            ters for subroutine
                                                            
  248 00000086 236E            MOVS             R3,#'n'
  249 00000088 E014            B                call_subroutine
  250 0000008A         
  251 0000008A         both_setup
  252 0000008A         ;configure LED's such that both LED's are turned on
  253 0000008A F000 F989       BL               Green_on
  254 0000008E F000 F975       BL               Red_on
  255 00000092 4A1E            LDR              R2,=both    ;setup input parame
                                                            ters for subroutine
                                                            
  256 00000094 2362            MOVS             R3,#'b'
  257 00000096 E00D            B                call_subroutine
  258 00000098         
  259 00000098         red_setup



ARM Macro Assembler    Page 8 Program Title for Listing Header Goes Here


  260 00000098         ;configure LED's such that only the red LED is turned on
                       
  261 00000098 F000 F970       BL               Red_on
  262 0000009C F000 F97A       BL               Green_off
  263 000000A0 4A1B            LDR              R2,=red     ;setup input parame
                                                            ters for subroutine
                                                            
  264 000000A2 2372            MOVS             R3,#'r'
  265 000000A4 E006            B                call_subroutine
  266 000000A6         
  267 000000A6         green_setup
  268 000000A6         ;configure LED's such that only the green LED is turned 
                       on
  269 000000A6 F000 F97B       BL               Green_on
  270 000000AA F000 F96D       BL               Red_off
  271 000000AE 4A19            LDR              R2,=green   ;setup input parame
                                                            ters for subroutine
                                                            
  272 000000B0 2367            MOVS             R3,#'g'
  273 000000B2 E7FF            B                call_subroutine
  274 000000B4         
  275 000000B4         call_subroutine
  276 000000B4 1C64            ADDS             R4,R4,#1    ;increase the game 
                                                            round by 1 every ti
                                                            me it loops back
  277 000000B6 2C0B            CMP              R4,#11      ;allow maximum of 1
                                                            0 rounds, compare t
                                                            o ceiling of (10+1)
                                                            
  278 000000B8 D00E            BEQ              CompleteGame ;complete game if 
                                                            max rounds has been
                                                             completed
  279 000000BA         
  280 000000BA F000 F83D       BL               Game_Round  ;subroutine will pe
                                                            rform the responsib
                                                            ilities of a single
                                                             round
  281 000000BE         
  282 000000BE D200            BCS              TimerExpired ;if the carry bit 
                                                            is set, then run Ti
                                                            merExpired logic
  283 000000C0 E7CD            B                round       ;go to new round if
                                                             expired flag not s
                                                            et
  284 000000C2         
  285 000000C2         ;logic that will be run when the timer has expired
  286 000000C2         TimerExpired
  287 000000C2         ;run expiration logic if expired flag settime_expired
  288 000000C2 2058            MOVS             R0,#'X'     ;place 'X' characte
                                                            r into R0
  289 000000C4 F000 F985       BL               PutChar     ;write 'X' to termi
                                                            nal 
  290 000000C8 4813            LDR              R0,=out_of_time ;load address o
                                                            f 'out_of_time' mes
                                                            sage into R0
  291 000000CA F000 F931       BL               PutString   ;write 'out_of_time
                                                            ' string to termina
                                                            l
  292 000000CE 0010            MOVS             R0,R2       ;load string for ne



ARM Macro Assembler    Page 9 Program Title for Listing Header Goes Here


                                                            ither, both, red, o
                                                            r green
  293 000000D0 F000 F92E       BL               PutString
  294 000000D4 F000 F828       BL               newline
  295 000000D8         
  296 000000D8         CompleteGame
  297 000000D8 4810            LDR              R0,=your_score_is ;prints: "Gam
                                                            e over. Your score 
                                                            is"
  298 000000DA F000 F929       BL               PutString
  299 000000DE 4804            LDR              R0,=Score   ;load into R0 the a
                                                            ddress of score
  300 000000E0 6800            LDR              R0,[R0,#0]  ;load into R0 the v
                                                            alue at R0's addres
                                                            s
  301 000000E2 F000 F9B0       BL               PutNumUB    ;print the decimal 
                                                            form on the termina
                                                            l screen
  302 000000E6 480E            LDR              R0,=points  ;load address of 'p
                                                            oints' prefix messa
                                                            ge into R0
  303 000000E8 F000 F922       BL               PutString
  304 000000EC E79A            B                start       ;start new game
  305 000000EE         
  306 000000EE         
  307 000000EE         ;>>>>>   end main program code <<<<<
  308 000000EE         ;Stay here
  309 000000EE E7FE            B                .
  310 000000F0 00000000 
              00000000 
              00000000 
              00000000 
              00000000 
              00000000 
              00000000 
              00000000 
              00000000 
              00000000 
              00000000 
              00000000 
              00000000 
              00000000         LTORG
  311 00000128                 ALIGN
  312 00000128         ;-------------------------------------------------------
                       --------
  313 00000128         ;>>>>> begin subroutine code <<<<<
  314 00000128         ;*******************************************************
                       *********************************************
  315 00000128         newline
  316 00000128 B501            PUSH{R0,LR}
  317 0000012A 200D            MOVS             R0,#CR      ;carriage return
  318 0000012C F000 F951       BL               PutChar
  319 00000130 200A            MOVS             R0,#LF      ;line feed
  320 00000132 F000 F94E       BL               PutChar     ;completes a new li
                                                            ne
  321 00000136 BD01            POP{R0,PC}
  322 00000138         
  323 00000138         ;*******************************************************
                       ********************************************************



ARM Macro Assembler    Page 10 Program Title for Listing Header Goes Here


                       *****
  324 00000138         ;Input Parameters
  325 00000138         ;custom string address: R2
  326 00000138         ;checking character   : R3
  327 00000138         ;game round           : R4
  328 00000138         Game_Round
  329 00000138 B5FE            PUSH             {R1-R7,LR}
  330 0000013A         
  331 0000013A 48FE            LDR              R0,=round_number ;load address 
                                                            of round prefix
  332 0000013C F000 F8F8       BL               PutString   ;write round prefix
                                                             to terminal
  333 00000140 0020            MOVS             R0,R4       ;put the game round
                                                             number into R0
  334 00000142 F000 F980       BL               PutNumUB    ;print the decimal 
                                                            form on the termina
                                                            l screen
  335 00000146 F7FF FFEF       BL               newline     ;write new line to 
                                                            terminal
  336 0000014A 203E            MOVS             R0,#'>'     ;write '>' characte
                                                            r to terminal
  337 0000014C F000 F941       BL               PutChar
  338 00000150         Retry
  339 00000150 F000 F92C       BL               check_pressed ;uses R1
  340 00000154 2901            CMP              R1,#1       ;if the user presse
                                                            d a key
  341 00000156 D119            BNE              not_pressed ;branch to not_pres
                                                            sed label if no act
                                                            ion taken 
  342 00000158 F000 F933       BL               GetChar
  343 0000015C 4298            CMP              R0,R3       ;check if the user 
                                                            pressed correct cha
                                                            racter
  344 0000015E D000            BEQ              correct_answer ;branch to corre
                                                            ct_answer label if 
                                                            correct answer prov
                                                            ided
  345 00000160 D10A            BNE              incorrect
  346 00000162         correct_answer
  347 00000162 F000 F936       BL               PutChar     ;print the user's c
                                                            haracter on the scr
                                                            een
  348 00000166 48F4            LDR              R0,=correct ;load address of 'c
                                                            orrect' message int
                                                            o R0
  349 00000168 F000 F8E2       BL               PutString   ;write 'correct' me
                                                            ssage to terminal
  350 0000016C 0010            MOVS             R0,R2       ;load string for ne
                                                            ither, both, red, o
                                                            r green
  351 0000016E F000 F8DF       BL               PutString
  352 00000172 F7FF FFD9       BL               newline     ;write a new line t
                                                            o terminal
  353 00000176 E01C            B                increase_score ;increase the sc
                                                            ore for current gam
                                                            e
  354 00000178         
  355 00000178         incorrect
  356 00000178         ;when the incorrect character is entered, alert user wit



ARM Macro Assembler    Page 11 Program Title for Listing Header Goes Here


                       h appropriate error message
  357 00000178 F000 F92B       BL               PutChar
  358 0000017C 48EF            LDR              R0,=wrong
  359 0000017E F000 F8D7       BL               PutString
  360 00000182 F7FF FFD1       BL               newline
  361 00000186 203E            MOVS             R0,#'>'
  362 00000188 F000 F923       BL               PutChar
  363 0000018C         
  364 0000018C         not_pressed
  365 0000018C         ;determine if the amount of time spent in round exceeds 
                       the amount of time allowed
  366 0000018C 48EC            LDR              R0,=Count   ;load address of co
                                                            unt into R0
  367 0000018E 6800            LDR              R0,[R0,#0]  ;load value of coun
                                                            t into R0
  368 00000190         
  369 00000190         ;below block will calculate (11-round) * 100 -- 
  370 00000190         ;equal to number of .01s segments allowed in round
  371 00000190         
  372 00000190 250B            MOVS             R5,#11      ;move into R5 11
  373 00000192 1B2E            SUBS             R6,R5,R4    ;R6 has the value o
                                                            f (11-round)
  374 00000194 2500            MOVS             R5,#0       ;reset R5
  375 00000196         ;copy (11-i) into R7, shift, and add intermediate to R5
  376 00000196 0037            MOVS             R7,R6
  377 00000198 01BF            LSLS             R7,R7,#6
  378 0000019A 19ED            ADDS             R5,R5,R7
  379 0000019C         ;copy (11-i) into R7, shift, and add intermediate to R5
  380 0000019C 0037            MOVS             R7,R6
  381 0000019E 017F            LSLS             R7,R7,#5
  382 000001A0 19ED            ADDS             R5,R5,R7
  383 000001A2         ;copy (11-i) into R7, shift, and add intermediate to R5
  384 000001A2 0037            MOVS             R7,R6
  385 000001A4 00BF            LSLS             R7,R7,#2
  386 000001A6 19ED            ADDS             R5,R5,R7
  387 000001A8         
  388 000001A8         ;compares count (.01s segments spent in round) to the ti
                       me allowed
  389 000001A8 42A8            CMP              R0,R5       ;compare time spent
                                                             to time allowed
  390 000001AA DBD1            BLT              Retry       ;continue with roun
                                                            d if more time allo
                                                            wed
  391 000001AC         
  392 000001AC         ;set carry
  393 000001AC 2301            MOVS             R3,#1
  394 000001AE 085B            LSRS             R3,R3,#1
  395 000001B0         
  396 000001B0 E004            B                GameRoundReturn
  397 000001B2         
  398 000001B2         increase_score
  399 000001B2         
  400 000001B2         ;R4 contains the game round
  401 000001B2         ;increase score by the game round
  402 000001B2         
  403 000001B2 4DE4            LDR              R5,=Score   ;load into R5 addre
                                                            ss of Score
  404 000001B4 682E            LDR              R6,[R5,#0]  ;load value of scor
                                                            e into R6



ARM Macro Assembler    Page 12 Program Title for Listing Header Goes Here


  405 000001B6 1936            ADDS             R6,R6,R4    ;increment score in
                                                             R6 by round number
                                                             in R4
  406 000001B8 602E            STR              R6,[R5,#0]  ;store incremented 
                                                            score in Score vari
                                                            able
  407 000001BA         
  408 000001BA         ;increase the score here and return from subroutine
  409 000001BA E7FF            B                GameRoundReturn
  410 000001BC         
  411 000001BC         ;returns from the subroutine
  412 000001BC         GameRoundReturn
  413 000001BC BDFE            POP{R1-R7,PC}
  414 000001BE         
  415 000001BE         
  416 000001BE         ;*******************************************************
                       **********************************
  417 000001BE         Initialize_Queue_Record
  418 000001BE         ;initializes the queue record structure for a queue buff
                       er of 4 characters (4bytes)
  419 000001BE 48E2            LDR              R0,=RxQBuffer ;load into R0 the
                                                             address of QBuffer
                                                             (character to enqu
                                                            eue)
  420 000001C0 49E2            LDR              R1,=RxQRecord ;load into R1 the
                                                             address of the que
                                                            ue record structure
                                                            
  421 000001C2 6008            STR              R0,[R1,#IN_PTR] ;points to the 
                                                            beginning of the qu
                                                            eue buffer
  422 000001C4 6048            STR              R0,[R1,#OUT_PTR] ;points to the
                                                             beginning of the q
                                                            ueue buffer
  423 000001C6 6088            STR              R0,[R1,#BUF_STRT] ;address of b
                                                            eginning of queue b
                                                            uffer
  424 000001C8 2250            MOVS             R2,#80      ;move the capacity 
                                                            of the queue buffer
                                                             into R2
  425 000001CA 1880            ADDS             R0,R0,R2    ;increment the char
                                                            acter (R0) by the q
                                                            ueue buffer size
  426 000001CC 60C8            STR              R0,[R1,#BUF_PAST] ;first addres
                                                            s past the end of t
                                                            he QBuffer
  427 000001CE 740A            STRB             R2,[R1,#BUF_SIZE] ;store a byte
                                                             of the contents in
                                                             R2 into the addres
                                                            s in R1 with an off
                                                            set of the buffer s
                                                            ize
  428 000001D0 2000            MOVS             R0,#0       ;move a zero into R
                                                            0
  429 000001D2 7448            STRB             R0,[R1,#NUM_ENQD] ;store a byte
                                                             of the contents in
                                                             R0 into the addres
                                                            s of R1 with an off
                                                            set of Num_enqd.



ARM Macro Assembler    Page 13 Program Title for Listing Header Goes Here


  430 000001D4         
  431 000001D4 48DE            LDR              R0,=TxQBuffer ;load into R0 the
                                                             address of QBuffer
                                                             (character to enqu
                                                            eue)
  432 000001D6 49DF            LDR              R1,=TxQRecord ;load into R1 the
                                                             address of the que
                                                            ue record structure
                                                            
  433 000001D8 6008            STR              R0,[R1,#IN_PTR] ;points to the 
                                                            beginning of the qu
                                                            eue buffer
  434 000001DA 6048            STR              R0,[R1,#OUT_PTR] ;points to the
                                                             beginning of the q
                                                            ueue buffer
  435 000001DC 6088            STR              R0,[R1,#BUF_STRT] ;address of b
                                                            eginning of queue b
                                                            uffer
  436 000001DE 2250            MOVS             R2,#80      ;move the capacity 
                                                            of the queue buffer
                                                             into R2
  437 000001E0 1880            ADDS             R0,R0,R2    ;increment the char
                                                            acter (R0) by the q
                                                            ueue buffer size
  438 000001E2 60C8            STR              R0,[R1,#BUF_PAST] ;first addres
                                                            s past the end of t
                                                            he QBuffer
  439 000001E4 740A            STRB             R2,[R1,#BUF_SIZE] ;store a byte
                                                             of the contents in
                                                             R2 into the addres
                                                            s in R1 with an off
                                                            set of the buffer s
                                                            ize
  440 000001E6 2000            MOVS             R0,#0       ;move a zero into R
                                                            0
  441 000001E8 7448            STRB             R0,[R1,#NUM_ENQD] ;store a byte
                                                             of the contents in
                                                             R0 into the addres
                                                            s of R1 with an off
                                                            set of Num_enqd.
  442 000001EA         
  443 000001EA 48DB            LDR              R0,=QBuffer ;load into R0 the a
                                                            ddress of QBuffer (
                                                            character to enqueu
                                                            e)
  444 000001EC 49DB            LDR              R1,=QRecord ;load into R1 the a
                                                            ddress of the queue
                                                             record structure
  445 000001EE 6008            STR              R0,[R1,#IN_PTR] ;points to the 
                                                            beginning of the qu
                                                            eue buffer
  446 000001F0 6048            STR              R0,[R1,#OUT_PTR] ;points to the
                                                             beginning of the q
                                                            ueue buffer
  447 000001F2 6088            STR              R0,[R1,#BUF_STRT] ;address of b
                                                            eginning of queue b
                                                            uffer
  448 000001F4 2204            MOVS             R2,#4       ;move the capacity 
                                                            of the queue buffer



ARM Macro Assembler    Page 14 Program Title for Listing Header Goes Here


                                                             into R2
  449 000001F6 1880            ADDS             R0,R0,R2    ;increment the char
                                                            acter (R0) by the q
                                                            ueue buffer size
  450 000001F8 60C8            STR              R0,[R1,#BUF_PAST] ;first addres
                                                            s past the end of t
                                                            he QBuffer
  451 000001FA 740A            STRB             R2,[R1,#BUF_SIZE] ;store a byte
                                                             of the contents in
                                                             R2 into the addres
                                                            s in R1 with an off
                                                            set of the buffer s
                                                            ize
  452 000001FC 2000            MOVS             R0,#0       ;move a zero into R
                                                            0
  453 000001FE 7448            STRB             R0,[R1,#NUM_ENQD] ;store a byte
                                                             of the contents in
                                                             R0 into the addres
                                                            s of R1 with an off
                                                            set of Num_enqd.
  454 00000200         
  455 00000200         
  456 00000200 4770            BX               LR
  457 00000202         ;*******************************************************
                       ********************************************************
                       **************
  458 00000202         UART1_ISR
  459 00000202         ;interrupt service routine that handles UART1 transmit a
                       nd receive interrupts
  460 00000202         ;gets the value from the status register and determines 
                       whether or not to tramit based on TDRE and RDRF bits
  461 00000202         ;
  462 00000202 B672            CPSID            I
  463 00000204 B500            PUSH             {LR}
  464 00000206 4BD6            LDR              R3,=UART1_BASE ;setting up the 
                                                            address for where t
                                                            he uart is so that 
                                                            we can do displacem
                                                            ent
  465 00000208 2180            MOVS             R1,#UART_C2_TIE_MASK ;isolates 
                                                            the TIE bit
  466 0000020A 78DA            LDRB             R2,[R3,#UART_C2_OFFSET] ;gettin
                                                            g control register 
                                                            2 value from the ua
                                                            rt
  467 0000020C 420A            TST              R2,R1       ;and with the mask 
                                                            and current control
                                                             2 register value
  468 0000020E D00B            BEQ              check_receive ;becvause you kno
                                                            w transmit doesn't 
                                                            have anything
  469 00000210         ;interrupt is enabled if you passed this
  470 00000210 2180            MOVS             R1,#UART_S1_TDRE_MASK ;mask
  471 00000212 791A            LDRB             R2,[R3,#UART_S1_OFFSET] ;
  472 00000214 4211            TST              R1,R2       ;Checking to see if
                                                             tdre bit is set
  473 00000216 D007            BEQ              check_receive
  474 00000218         ;if it got past, then it is set. there is something to b
                       e transmitted



ARM Macro Assembler    Page 15 Program Title for Listing Header Goes Here


  475 00000218 49CE            LDR              R1,=TxQRecord ;dequeue needs an
                                                             address to transmi
                                                            t
  476 0000021A F000 F838       BL               Dequeue
  477 0000021E D201            BCS              ISR_dequeue_failure
  478 00000220 71D8            STRB             R0,[R3,#UART_D_OFFSET] ;gives t
                                                            he dequeued char to
                                                             the uart so that i
                                                            t can transmit it
  479 00000222 E001            B                check_receive
  480 00000224         
  481 00000224         ISR_dequeue_failure
  482 00000224 222C            MOVS             R2,#UART_C2_T_RI ;the control r
                                                            egister value that 
                                                            the register needs 
                                                            to be reset to when
                                                             the error happens
  483 00000226 70DA            STRB             R2,[R3,#UART_C2_OFFSET] ;store 
                                                            at the base with co
                                                            ntrol 2 equate valu
                                                            e offset.
  484 00000228         
  485 00000228         check_receive
  486 00000228 791A            LDRB             R2,[R3,#UART_S1_OFFSET] ;R2 is 
                                                            given the value of 
                                                            the status register
                                                             (byte value)
  487 0000022A 2120            MOVS             R1,#UART_S1_RDRF_MASK ;mask
  488 0000022C 791A            LDRB             R2,[R3,#UART_S1_OFFSET] ;
  489 0000022E 4211            TST              R1,R2       ;Checking to see if
                                                             tdre bit is set
  490 00000230 D003            BEQ              finish_ISR  ;if the branch happ
                                                            ens then RDRF =0 wh
                                                            ich means you don't
                                                             have to handle it 
                                                            because there's not
                                                            hing to receive.
  491 00000232 79D8            LDRB             R0,[R3,#UART_D_OFFSET] ;loading
                                                             the ascii value fr
                                                            om the uart because
                                                             you know that ther
                                                            e is an ascii there
                                                             now
  492 00000234 49C5            LDR              R1,=RxQRecord
  493 00000236 F000 F846       BL               Enqueue     ;puts the ascii val
                                                            ue in the queue
  494 0000023A         
  495 0000023A         finish_ISR
  496 0000023A B662            CPSIE            I
  497 0000023C BD00            POP              {PC}
  498 0000023E         
  499 0000023E         ;*******************************************************
                       *********************************************
  500 0000023E         
  501 0000023E         CopyString
  502 0000023E         ;Creates a null terminated string in memory starting at 
                       the address in R1 by copying the characters from a null-
                       terminated
  503 0000023E         ;source string from memory starting at the address in R0



ARM Macro Assembler    Page 16 Program Title for Listing Header Goes Here


                       
  504 0000023E         ;R0 gets copied into R1
  505 0000023E         
  506 0000023E B40F            PUSH{R0-R3}
  507 00000240 2200            MOVS             R2,#0       ;initialize counter
                                                            
  508 00000242         CopyStringLoop
  509 00000242 5C83            LDRB             R3,[R0,R2]  ;getting the curren
                                                            t ascii value from 
                                                            memory using offset
                                                             of counter
  510 00000244 548B            STRB             R3,[R1,R2]  ;storing the curren
                                                            t ascii value into 
                                                            the desired registe
                                                            r
  511 00000246 1C52            ADDS             R2,R2,#1    ;increment counter
  512 00000248 2B00            CMP              R3,#0       ;check for null-ter
                                                            minating character
  513 0000024A D000            BEQ              endofstring_CS ;branch if reach
                                                            ed null terminating
                                                             char
  514 0000024C E7F9            B                CopyStringLoop
  515 0000024E         endofstring_CS
  516 0000024E BC0F            POP{R0-R3}
  517 00000250 4770            BX               LR
  518 00000252         
  519 00000252         ;*******************************************************
                       ********************************************************
                       *****
  520 00000252         ReverseString
  521 00000252         ;Reverses the characters of a null-terminated string in 
                       memory starting at the address in R0
  522 00000252         ;R0: string starts at address in R0
  523 00000252         ;R2: incrementing counter: used for iteration and R0 mem
                       ory address offset
  524 00000252         ;R3: the ascii value of the current character in the str
                       ing
  525 00000252         ;R4: incrementing counter used for offset when storing c
                       haracters back into R0
  526 00000252         
  527 00000252 B41C            PUSH             {R2-R4}
  528 00000254 2200            MOVS             R2,#0       ;initialize first o
                                                            ffset counter
  529 00000256 2400            MOVS             R4,#0       ;initialize second 
                                                            offset counter
  530 00000258         Loop_ReverseString
  531 00000258 5C83            LDRB             R3,[R0,R2]  ;get the current as
                                                            cii value from the 
                                                            string starting at 
                                                            address in R0 by us
                                                            ing offset of char 
                                                            counter
  532 0000025A 2B00            CMP              R3,#0       ;check for null-ter
                                                            mination
  533 0000025C D002            BEQ              null_loop   ;branch if you reac
                                                            h the zero
  534 0000025E B408            PUSH{R3}                     ;push the current c
                                                            haracter on the sta
                                                            ck



ARM Macro Assembler    Page 17 Program Title for Listing Header Goes Here


  535 00000260 1C52            ADDS             R2,R2,#1    ;increment characte
                                                            r counter to use fo
                                                            r offset when loadi
                                                            ng when you loop ag
                                                            ain
  536 00000262 E7F9            B                Loop_ReverseString
  537 00000264         null_loop
  538 00000264 BC08            POP{R3}                      ;pop character off 
                                                            of the top of the s
                                                            tack
  539 00000266 5503            STRB             R3,[R0,R4]  ;put current charac
                                                            ter back into R0 w/
                                                             offset of new coun
                                                            ter
  540 00000268 1C64            ADDS             R4,R4,#1    ;increment counter
  541 0000026A 4294            CMP              R4,R2       ;compare the counte
                                                            rs
  542 0000026C D000            BEQ              done_reverse ;if you reach the 
                                                            same value as the s
                                                            ame counter then th
                                                            at means you reache
                                                            d the end of the st
                                                            ring again.
  543 0000026E E7F9            B                null_loop
  544 00000270         done_reverse
  545 00000270 BC1C            POP{R2-R4}
  546 00000272 4770            BX               LR
  547 00000274         ;*******************************************************
                       ********************************************************
                       *****
  548 00000274         SearchStringChar
  549 00000274         ;Searches the null-terminated string in memory starting 
                       at the address in R1 for the character in R0
  550 00000274         ;If that character is present in the string, on return t
                       he value of register R2 will be the position of that cha
                       racter in the string
  551 00000274         ;e.g: 1 if its the first char, 2 if its the second char
  552 00000274         ;otherwise, R2 will be 0 on return
  553 00000274         ;R1: address of the string
  554 00000274         ;R0: character you are searching for
  555 00000274         ;R2: output
  556 00000274         
  557 00000274 B40B            PUSH{R0,R1,R3}               ;exclude R2 because
                                                             r2 is the output
  558 00000276 2200            MOVS             R2,#0       ;initialize positio
                                                            n counter
  559 00000278         Loop_SearchString
  560 00000278 5C8B            LDRB             R3,[R1,R2]  ;getting current as
                                                            cii value
  561 0000027A 1C52            ADDS             R2,R2,#1    ;incrementing count
                                                            er
  562 0000027C 4298            CMP              R0,R3       ;comparing current 
                                                            ascii to the one yo
                                                            u're seaching for
  563 0000027E D002            BEQ              found       ;if they are equal,
                                                             then you found the
                                                             char
  564 00000280 2B00            CMP              R3,#0       ;check for null ter
                                                            mination



ARM Macro Assembler    Page 18 Program Title for Listing Header Goes Here


  565 00000282 D002            BEQ              didnt_find  ;if you reach null 
                                                            termination, then t
                                                            hat means you didn'
                                                            t find the char you
                                                            're looking for
  566 00000284 E7F8            B                Loop_SearchString ;loop
  567 00000286         found
  568 00000286 BC0B            POP{R0,R1,R3}                ;pop registers
  569 00000288 4770            BX               LR          ;go back to main pr
                                                            ogram code
  570 0000028A         didnt_find
  571 0000028A 2200            MOVS             R2,#0       ;move 0 into R2 if 
                                                            it didn't find the 
                                                            char
  572 0000028C E7FB            B                found
  573 0000028E         
  574 0000028E         
  575 0000028E         
  576 0000028E         ;*******************************************************
                       ********************************************************
                       *****
  577 0000028E         Dequeue
  578 0000028E         ;Attempts to get a character from the queue whose record
                        structure's address is in R1.
  579 0000028E         ;if the queue is not empty, it dequeues a single charact
                       er from the queue to R0, and returns with the CCR C bit 
                       cleared
  580 0000028E         ;C bit cleared reports dequeue success, C bit set report
                       s dequeue failure.
  581 0000028E         ;Input: R1: address of queue record structure
  582 0000028E         ;Output: character dequeued into R0, PSR C flag
  583 0000028E         ;Modify: R0 and PSR. All other registers remain unchange
                       d on return.
  584 0000028E         
  585 0000028E B41E            PUSH{R1-R4}                  ;save on stack any 
                                                            register used, othe
                                                            r than PSR
  586 00000290 7C4A            LDRB             R2,[R1,#NUM_ENQD] ;puts the num
                                                            ber of enqueued ele
                                                            ments into R2
  587 00000292 2A00            CMP              R2,#0       ;Check if queue is 
                                                            empty
  588 00000294 D013            BEQ              queue_empty_DQ
  589 00000296         ;if the queue is not empty:
  590 00000296 684A            LDR              R2,[R1,#OUT_PTR] ;load the outp
                                                            ointer address into
                                                             a register
  591 00000298 7810            LDRB             R0,[R2,#0]  ;get queue item (ch
                                                            aracter/byte)at Out
                                                            Pointer (R2)
  592 0000029A 1C52            ADDS             R2,R2,#1    ;Increment outpoint
                                                            er past queue item 
                                                            (increment by 1 byt
                                                            e value)
  593 0000029C 604A            STR              R2,[R1,#OUT_PTR] ;updates the v
                                                            alue of the outpoin
                                                            ter
  594 0000029E 7C4B            LDRB             R3,[R1,#NUM_ENQD] ;load the num
                                                            _enqd equate value 



ARM Macro Assembler    Page 19 Program Title for Listing Header Goes Here


                                                            into a register
  595 000002A0 1E5B            SUBS             R3,R3,#1    ;decrement numberEn
                                                            queued.
  596 000002A2 744B            STRB             R3,[R1,#NUM_ENQD] ;storing upda
                                                            ted number of eleme
                                                            nts into the queue 
                                                            record structure
  597 000002A4 68CB            LDR              R3,[R1,#BUF_PAST] ;load buf_pas
                                                            t value into regist
                                                            er
  598 000002A6 429A            CMP              R2,R3       ;check to see if ou
                                                            tpointer is outside
                                                             of the queue buffe
                                                            r
  599 000002A8 D203            BHS              outside_buffer_DQ
  600 000002AA         ;if out_ptr NOT outside queue buffer:
  601 000002AA 2300            MOVS             R3,#0
  602 000002AC 085B            LSRS             R3,R3,#1    ;clear carry flag
  603 000002AE BC1E            POP{R1-R4}                   ;restore any regist
                                                            ers pushed onto the
                                                             stack
  604 000002B0 4770            BX               LR          ;go back to main co
                                                            de
  605 000002B2         outside_buffer_DQ
  606 000002B2 688B            LDR              R3,[R1,#BUF_STRT] ;adjust outpo
                                                            inter to start of q
                                                            ueue buffer
  607 000002B4 604B            STR              R3,[R1,#OUT_PTR]
  608 000002B6 2300            MOVS             R3,#0
  609 000002B8 085B            LSRS             R3,R3,#1    ;clear carry flag
  610 000002BA BC1E            POP{R1-R4}                   ;restore any regist
                                                            ers pushed onto the
                                                             stack
  611 000002BC 4770            BX               LR          ;go back to main co
                                                            de
  612 000002BE         queue_empty_DQ
  613 000002BE 2301            MOVS             R3,#1
  614 000002C0 085B            LSRS             R3,R3,#1    ;set carry flag
  615 000002C2 BC1E            POP{R1-R4}                   ;restore any regist
                                                            ers pushed onto the
                                                             stack
  616 000002C4 4770            BX               LR          ;go back to main co
                                                            de
  617 000002C6         ;*******************************************************
                       ********************************************************
                       *****
  618 000002C6         Enqueue
  619 000002C6         ;Attempts to put a character in the queue whose queue re
                       cord structure' saddress is in R1.
  620 000002C6         ;if the queue is not full, enqueues the single character
                        from R0 to the queue, and returns with the CCR C bit cl
                       eared
  621 000002C6         ;C bit cleared reports enqueue success, C bit set report
                       s enqueue failure.
  622 000002C6         ;Input: R0: character to enqueue
  623 000002C6         ;       R1: Address of queue record structure
  624 000002C6         ;Output: PSR C flag (success = 0, failure = 1)
  625 000002C6         ;All other registers remain unchanged on return.
  626 000002C6 B41E            PUSH{R1-R4}                  ;save on stack any 



ARM Macro Assembler    Page 20 Program Title for Listing Header Goes Here


                                                            register used, othe
                                                            r than PSR
  627 000002C8 7C4A            LDRB             R2,[R1,#NUM_ENQD] ;puts the num
                                                            ber of enqueued ele
                                                            ments into R2
  628 000002CA 7C0B            LDRB             R3,[R1,#BUF_SIZE] ;buffer size
  629 000002CC 429A            CMP              R2,R3       ;Check if queue is 
                                                            full
  630 000002CE D20E            BHS              queue_full_EQ
  631 000002D0         ;if the queue is not full:
  632 000002D0 680B            LDR              R3,[R1,#IN_PTR] ;getting the ad
                                                            dress for the chara
                                                            cter
  633 000002D2 7018            STRB             R0,[R3,#0]  ;put new element at
                                                             memory location wh
                                                            ere in pointer poin
                                                            ts (enqueue char)
  634 000002D4 1C52            ADDS             R2,R2,#1    ;increment numberEn
                                                            queued.
  635 000002D6 1C5B            ADDS             R3,R3,#1    ;Increment in point
                                                            er past queue item 
                                                            (increment by 1 byt
                                                            e value) 
  636 000002D8 744A            STRB             R2,[R1,#NUM_ENQD] ;
  637 000002DA         
  638 000002DA 68CA            LDR              R2,[R1,#BUF_PAST] ;move buf_pas
                                                            t value into regist
                                                            er
  639 000002DC 4293            CMP              R3,R2       ;check to see if in
                                                            pointer is outside 
                                                            of the queue buffer
                                                            
  640 000002DE D201            BHS              outside_buffer_EQ
  641 000002E0         ;if you didn't go past, you still need to update the inp
                       ointer
  642 000002E0 600B            STR              R3,[R1,#IN_PTR] ;storing the up
                                                            dated in pointer in
                                                             the queue record
  643 000002E2 E006            B                EnqueueDone
  644 000002E4         
  645 000002E4         outside_buffer_EQ
  646 000002E4         ;if you go past, reset to the start of buffer
  647 000002E4 688B            LDR              R3,[R1,#BUF_STRT]
  648 000002E6 600B            STR              R3,[R1,#IN_PTR] ;storing the up
                                                            dated in pointer in
                                                             the queue record
  649 000002E8 2200            MOVS             R2,#0       ;moving 0 into R2  
                                                             
  650 000002EA 0852            LSRS             R2,R2,#1    ;clear carry flag
  651 000002EC E001            B                EnqueueDone
  652 000002EE         
  653 000002EE         queue_full_EQ
  654 000002EE 2301            MOVS             R3,#1
  655 000002F0 085B            LSRS             R3,R3,#1    ;set carry flag
  656 000002F2         
  657 000002F2         EnqueueDone
  658 000002F2 BC1E            POP{R1-R4}                   ;restore any regist
                                                            ers pushed onto the
                                                             stack



ARM Macro Assembler    Page 21 Program Title for Listing Header Goes Here


  659 000002F4 4770            BX               LR          ;go back to main co
                                                            de
  660 000002F6         ;*******************************************************
                       ********************************************************
                       *****
  661 000002F6         ;reads a string from the terminal keyboard to memory sta
                       rting at the address in R0 and adds null termination
  662 000002F6         ;accepts characters typed on the terminal keyboard until
                        the carriage return char is received
  663 000002F6         ;echoes character and stores character at next position 
                       in string for each char up to MAX_STRING-1 chars
  664 000002F6         ;for any character typed after the first MAX_STRING-1 ch
                       ars, it does not store the char in the string and doesn'
                       t echo the char
  665 000002F6         ;when carriage return char has been received, it null te
                       rminates the string, advances the cursor to the next lin
                       e, and returns.
  666 000002F6         GetString
  667 000002F6 B50F            PUSH{R0-R3,LR}               ;R0, R1, R2, and li
                                                            nk register
  668 000002F8 0001            MOVS             R1,R0       ;duplicating R0 mem
                                                            ory address
  669 000002FA 2200            MOVS             R2,#0       ;initialize counter
                                                            
  670 000002FC 234F            MOVS             R3,#MAX_STRING
  671 000002FE 1E5B            SUBS             R3,R3,#1
  672 00000300         while_get_string
  673 00000300 F000 F85F       BL               GetChar     ;allows user to ent
                                                            er in a character. 
                                                            stores it into R0
  674 00000304 F000 F865       BL               PutChar     ;print character to
                                                             screen so you can 
                                                            see what you're typ
                                                            ing
  675 00000308 280D            CMP              R0,#13      ;check for the ente
                                                            r character
  676 0000030A D004            BEQ              end_loop    ;end the loop if en
                                                            ter character was p
                                                            ressed
  677 0000030C 429A            CMP              R2,R3       ;compare to 78 beca
                                                            use reserve null ch
                                                            aracter at end of s
                                                            tring
  678 0000030E DA0A            BGE              max_string_length
  679 00000310 5488            STRB             R0,[R1,R2]  ;storing char into 
                                                            string, which is in
                                                             address stored in 
                                                            R1
  680 00000312 1C52            ADDS             R2,R2,#1    ;increment counter 
                                                            by 1
  681 00000314 E7F4            B                while_get_string ;loop again
  682 00000316         end_loop
  683 00000316 F000 F85C       BL               PutChar     ;printing out the c
                                                            arriage return char
                                                            acter (enter) bc th
                                                            ats the character t
                                                            hat ends the loops
  684 0000031A 200A            MOVS             R0,#LF      ;move line feed int
                                                            o R0



ARM Macro Assembler    Page 22 Program Title for Listing Header Goes Here


  685 0000031C F000 F859       BL               PutChar     ;completes new line
                                                             output
  686 00000320 2000            MOVS             R0,#0       ;move a null charac
                                                            ter into R0
  687 00000322 5488            STRB             R0,[R1,R2]  ;store the null cha
                                                            racter at the end o
                                                            f the string
  688 00000324 BD0F            POP{R0-R3,PC}                ;program counter
  689 00000326         max_string_length
  690 00000326 F000 F84C       BL               GetChar     ;allows user to ent
                                                            er characters but d
                                                            oesn't store/echo t
                                                            o screen
  691 0000032A 280D            CMP              R0,#13      ;compare to enter
  692 0000032C D0F3            BEQ              end_loop    ;ends loop if enter
                                                             was pressed
  693 0000032E E7FA            B                max_string_length ;stuck in loo
                                                            p until they press 
                                                            enter
  694 00000330         ;*******************************************************
                       ********************************************************
                       ****************
  695 00000330         ;displays null-terminated string from memory starting at
                        R0
  696 00000330         ;returns without advancing to the next line
  697 00000330         PutString
  698 00000330 B50F            PUSH{R0-R3,LR}
  699 00000332 0003            MOVS             R3,R0       ;duplicate register
                                                            
  700 00000334 7818            LDRB             R0,[R3,#0]  ;load byte for 1 as
                                                            cii value from R3 (
                                                            R3=memory address o
                                                            f 1st letter of the
                                                             string)
  701 00000336 2100            MOVS             R1,#0       ;initialize index
  702 00000338         while_length_string
  703 00000338 2800            CMP              R0,#0       ;compare char to nu
                                                            ll ascii value, whi
                                                            ch is zero
  704 0000033A D004            BEQ              end_of_string
  705 0000033C 1C49            ADDS             R1,R1,#1    ;increment counter 
                                                            by 1
  706 0000033E F000 F848       BL               PutChar     ;outputs the string
                                                            
  707 00000342 5C58            LDRB             R0,[R3,R1]  ;load the value in 
                                                            R0 with the offset 
                                                            of R1 (looking at t
                                                            he next character i
                                                            n the string)
  708 00000344 E7F8            B                while_length_string
  709 00000346         end_of_string
  710 00000346 BD0F            POP{R0-R3,PC}
  711 00000348         ;*******************************************************
                       ********************************************************
                       ******************
  712 00000348         PDDR
  713 00000348 B403            PUSH{R0,R1}
  714 0000034A 4888            LDR              R0,=FGPIOD_BASE
  715 0000034C 4988            LDR              R1,=LED_PORTD_MASK



ARM Macro Assembler    Page 23 Program Title for Listing Header Goes Here


  716 0000034E 6141            STR              R1,[R0,#GPIO_PDDR_OFFSET]
  717 00000350         
  718 00000350 4888            LDR              R0,=FGPIOE_BASE
  719 00000352 4989            LDR              R1,=LED_PORTE_MASK
  720 00000354 6141            STR              R1,[R0,#GPIO_PDDR_OFFSET]
  721 00000356 BC03            POP{R0,R1}
  722 00000358 4770            BX               LR
  723 0000035A         ;*******************************************************
                       ********************************************************
                       ******************
  724 0000035A         InitPortDandE
  725 0000035A B407            PUSH{R0-R2}
  726 0000035C 4887            LDR              R0,=SIM_SCGC5
  727 0000035E 4988            LDR              R1,=(SIM_SCGC5_PORTD_MASK :OR: 
SIM_SCGC5_PORTE_MASK)
  728 00000360 6802            LDR              R2,[R0,#0]
  729 00000362 430A            ORRS             R2,R2,R1
  730 00000364 6002            STR              R2,[R0,#0]
  731 00000366 BC07            POP{R0-R2}
  732 00000368 4770            BX               LR
  733 0000036A         ;*******************************************************
                       ********************************************************
                       ******************
  734 0000036A         LED_Init
  735 0000036A         ;red LED
  736 0000036A B403            PUSH{R0,R1}
  737 0000036C 4885            LDR              R0,=PORTE_BASE
  738 0000036E 4986            LDR              R1,=SET_PTE29_GPIO
  739 00000370 6741            STR              R1,[R0,#PORTE_PCR29_OFFSET]
  740 00000372         
  741 00000372         ;green LED
  742 00000372 4886            LDR              R0,=PORTD_BASE
  743 00000374 4984            LDR              R1,=SET_PTD5_GPIO
  744 00000376 6141            STR              R1,[R0,#PORTD_PCR5_OFFSET]
  745 00000378 BC03            POP{R0,R1}
  746 0000037A 4770            BX               LR
  747 0000037C         ;*******************************************************
                       ********************************************************
                       ******************
  748 0000037C         Red_on
  749 0000037C B403            PUSH{R0-R1}
  750 0000037E 487D            LDR              R0,=FGPIOE_BASE
  751 00000380 497D            LDR              R1,=LED_RED_MASK
  752 00000382 6081            STR              R1,[R0,#GPIO_PCOR_OFFSET]
  753 00000384 BC03            POP{R0-R1}
  754 00000386 4770            BX               LR
  755 00000388         ;*******************************************************
                       ********************************************************
                       ******************
  756 00000388         Red_off
  757 00000388 B403            PUSH{R0-R1}
  758 0000038A 487A            LDR              R0,=FGPIOE_BASE
  759 0000038C 497A            LDR              R1,=LED_RED_MASK
  760 0000038E 6041            STR              R1,[R0,#GPIO_PSOR_OFFSET]
  761 00000390 BC03            POP{R0-R1}
  762 00000392 4770            BX               LR
  763 00000394         ;*******************************************************
                       ********************************************************
                       ******************



ARM Macro Assembler    Page 24 Program Title for Listing Header Goes Here


  764 00000394         Green_off
  765 00000394 B403            PUSH{R0-R1}
  766 00000396 4875            LDR              R0,=FGPIOD_BASE
  767 00000398 4975            LDR              R1,=LED_GREEN_MASK
  768 0000039A 6041            STR              R1,[R0,#GPIO_PSOR_OFFSET]
  769 0000039C BC03            POP{R0-R1}
  770 0000039E 4770            BX               LR
  771 000003A0         ;*******************************************************
                       ********************************************************
                       ******************
  772 000003A0         Green_on
  773 000003A0 B403            PUSH{R0-R1}
  774 000003A2 4872            LDR              R0,=FGPIOD_BASE
  775 000003A4 4972            LDR              R1,=LED_GREEN_MASK
  776 000003A6 6081            STR              R1,[R0,#GPIO_PCOR_OFFSET]
  777 000003A8 BC03            POP{R0-R1}
  778 000003AA 4770            BX               LR
  779 000003AC         ;*******************************************************
                       ********************************************************
                       ******************
  780 000003AC         
  781 000003AC         check_pressed
  782 000003AC B500            PUSH             {LR}        ;pushing registers 
                                                            to use in subroutin
                                                            e
  783 000003AE         
  784 000003AE 4967            LDR              R1,=RxQRecord ;load into R1 bec
                                                            ause thats what deq
                                                            ueue takes
  785 000003B0         
  786 000003B0 B672            CPSID            I           ;mask other interru
                                                            pts
  787 000003B2 7C49            LDRB             R1,[R1,#NUM_ENQD]
  788 000003B4 2900            CMP              R1,#0       ; if R1 > 0
  789 000003B6 D101            BNE              gotchar
  790 000003B8 2100            MOVS             R1,#0       ;if nothing enqueue
                                                            d, then return 0
  791 000003BA E000            B                done_check
  792 000003BC         gotchar
  793 000003BC 2101            MOVS             R1,#1       ;return 1
  794 000003BE         done_check
  795 000003BE B662            CPSIE            I           ;unmask other inter
                                                            rupts
  796 000003C0 BD00            POP              {PC}        ;popping registers 
                                                            so we can use them 
                                                            in main code
  797 000003C2         ;*******************************************************
                       ********************************************************
                       ******************  
  798 000003C2         ;ascii value of character is loaded into R0
  799 000003C2         ;waiting for the user to enter a character and loads val
                       ue into R0 when typed
  800 000003C2         ;when RDRF=1 then that means user typed char, which mean
                       s user sent character to uart
  801 000003C2         ;otherwise, keep looping and waiting
  802 000003C2         
  803 000003C2         GetChar
  804 000003C2 B50E            PUSH             {R1-R3, LR} ;pushing registers 
                                                            to use in subroutin



ARM Macro Assembler    Page 25 Program Title for Listing Header Goes Here


                                                            e
  805 000003C4 4961            LDR              R1,=RxQRecord ;load into R1 bec
                                                            ause thats what deq
                                                            ueue takes
  806 000003C6         get_loop
  807 000003C6 B672            CPSID            I           ;mask other interru
                                                            pts
  808 000003C8 F7FF FF61       BL               Dequeue     ;dequeue character 
                                                            from RxQueue
  809 000003CC B662            CPSIE            I           ;unmask other inter
                                                            rupts
  810 000003CE D2FA            BCS              get_loop    ;branch if c set be
                                                            cause if c clear th
                                                            en end the loop
  811 000003D0 BD0E            POP              {R1-R3, PC} ;popping registers 
                                                            so we can use them 
                                                            in main code
  812 000003D2         
  813 000003D2         ;*******************************************************
                       *******************************************
  814 000003D2         ;takes value in R0 (ascii value) and gives it to the uar
                       t to display it on the screen
  815 000003D2         PutChar
  816 000003D2 B50E            PUSH             {R1-R3,LR}  ;push registers to 
                                                            use in subroutines
  817 000003D4 495F            LDR              R1,=TxQRecord ;load into R1 bec
                                                            ause thats what enq
                                                            ueue takes
  818 000003D6         put_loop
  819 000003D6 B672            CPSID            I           ;mask other interru
                                                            pts
  820 000003D8 F7FF FF75       BL               Enqueue
  821 000003DC B662            CPSIE            I           ;unmask interrupts
  822 000003DE D2FA            BCS              put_loop    ;branch back if c f
                                                            lag set (enqueue un
                                                            successful)
  823 000003E0 4A5F            LDR              R2,=UART1_BASE
  824 000003E2 23AC            MOVS             R3,#UART_C2_TI_RI ;allowing the
                                                             ISR to be run
  825 000003E4 70D3            STRB             R3,[R2,#UART_C2_OFFSET] ;storin
                                                            g the set bit into 
                                                            the C2 register
  826 000003E6 BD0E            POP{R1-R3,PC}                ;popping registers 
                                                            so we can use them 
                                                            in main code
  827 000003E8         ;*******************************************************
                       *********************************************  
  828 000003E8         ;displays the length of string in decimal form
  829 000003E8         ;make sure R0 has unsigned value because DIVU only works
                        with unsigned values
  830 000003E8         ;R1 is the dividend
  831 000003E8         ;R0 is the divisor
  832 000003E8         PutNumU
  833 000003E8 B507            PUSH{R0-R2,LR}               ;preserve link regi
                                                            ster b/c called wit
                                                            hin a diff subrouti
                                                            ne
  834 000003EA 2200            MOVS             R2,#0       ;counter keeps trac
                                                            k of how many decim



ARM Macro Assembler    Page 26 Program Title for Listing Header Goes Here


                                                            al values are pushe
                                                            d onto the stack
  835 000003EC         loop_PNU
  836 000003EC 0001            MOVS             R1,R0       ;make a copy of R0
  837 000003EE 200A            MOVS             R0,#10      ;dividing by a fact
                                                            or of 10
  838 000003F0 F000 F82F       BL               DIVU        ;divides by a facto
                                                            r of 10
  839 000003F4 3130            ADDS             R1,#0x30    ;converting R0 to t
                                                            he correct numerica
                                                            l ascii value
  840 000003F6 B402            PUSH{R1}                     ;push R1 onto the s
                                                            tack, R1 contains d
                                                            ecimal digit
  841 000003F8 1C52            ADDS             R2,R2,#1    ;increment counter
  842 000003FA 2800            CMP              R0,#0       ;check to see if re
                                                            mainder=0
  843 000003FC D1F6            BNE              loop_PNU    ;loop back if remai
                                                            nder is not equal t
                                                            o zero
  844 000003FE         Print_putnumU
  845 000003FE 2A00            CMP              R2,#0       ;compare stack coun
                                                            ter to zero
  846 00000400 D004            BEQ              putnumU_finished ;branch if sta
                                                            ck counter is zero
  847 00000402 BC01            POP{R0}                      ;pop decimal number
                                                             of digits from top
                                                             of stack into R0
  848 00000404 F7FF FFE5       BL               PutChar     ;diplay the charact
                                                            er on the screen
  849 00000408 1E52            SUBS             R2,R2,#1    ;decrement counter
  850 0000040A E7F8            B                Print_putnumU ;continuously put
                                                             more characters on
                                                             screen
  851 0000040C         putnumU_finished
  852 0000040C BD07            POP{R0-R2,PC}
  853 0000040E         
  854 0000040E         ;*******************************************************
                       *********************************************
  855 0000040E         PutNumHex
  856 0000040E         ;Input   R0: unsigned word value to print in hex
  857 0000040E         ;Modify   PSR (after return, nothing else)  
  858 0000040E         ;prints unsigned word value in R0 to the terminal screen
                        in hexadecimal format.
  859 0000040E B51E            PUSH{R1-R4,LR}
  860 00000410 0001            MOVS             R1,R0       ;copy register
  861 00000412 2030            MOVS             R0,#'0'     ;move 0 for hex pre
                                                            fix
  862 00000414 F7FF FFDD       BL               PutChar     ;print the 0
  863 00000418 2078            MOVS             R0,#'x'     ;move x for hex pre
                                                            fix
  864 0000041A F7FF FFDA       BL               PutChar     ;print x
  865 0000041E         
  866 0000041E         ;MOVS R2,#8       ;move 8 because there are 8 hex chars
  867 0000041E         ;R2 = down counter
  868 0000041E 231C            MOVS             R3,#28      ;28 = the shift amo
                                                            unt 32-28=4 most si
                                                            gnificant hex digit
                                                            



ARM Macro Assembler    Page 27 Program Title for Listing Header Goes Here


  869 00000420 240F            MOVS             R4,#0x0F    ;mask for the last 
                                                            four bits
  870 00000422         
  871 00000422         Loop_PNH
  872 00000422 2B00            CMP              R3,#0       ;compare to zero
  873 00000424 DB0E            BLT              Done_PNH    ;branch because shi
                                                            ft amount is negati
                                                            ve
  874 00000426         
  875 00000426 0008            MOVS             R0,R1       ;move copy back int
                                                            o R0
  876 00000428 40D8            LSRS             R0,R0,R3    ;shift by shifting 
                                                            amount
  877 0000042A 1F1B            SUBS             R3,R3,#4    ;decrement shift am
                                                            ount for next loop
  878 0000042C 4020            ANDS             R0,R0,R4    ;and R0 with the ma
                                                            sk
  879 0000042E 280A            CMP              R0,#10      ;check if value is 
                                                            greater than ten be
                                                            cause then it would
                                                             need letters A-F
  880 00000430 DA03            BGE              greaterthan10_PNH ;
  881 00000432         ;less than 10
  882 00000432 3030            ADDS             R0,R0,#'0'  ;convert to ascii b
                                                            y adding ascii valu
                                                            e for 0.
  883 00000434 F7FF FFCD       BL               PutChar
  884 00000438 E7F3            B                Loop_PNH
  885 0000043A         greaterthan10_PNH
  886 0000043A 380A            SUBS             R0,R0,#10   ;subtract result fr
                                                            om shift by 10
  887 0000043C 3041            ADDS             R0,R0,#'A'  ;add to ascii value
                                                             of 10, which is A
  888 0000043E F7FF FFC8       BL               PutChar
  889 00000442 E7EE            B                Loop_PNH
  890 00000444         Done_PNH
  891 00000444 BD1E            POP{R1-R4,PC}
  892 00000446         
  893 00000446         ;*******************************************************
                       ***************************
  894 00000446         PutNumUB
  895 00000446         ;print the unsigned byte value in R0 to the terminal scr
                       een in decimal
  896 00000446         ;
  897 00000446         ;
  898 00000446 B51E            PUSH{R1-R4,LR}
  899 00000448 21FF            MOVS             R1,#0xFF    ;mask with 1s to pr
                                                            eserve last byte
  900 0000044A 4008            ANDS             R0,R0,R1    ;and the word value
                                                             with the mask
  901 0000044C F7FF FFCC       BL               PutNumU     ;call PutNumU to pr
                                                            int the number in d
                                                            ecimal
  902 00000450 BD1E            POP{R1-R4,PC}
  903 00000452         ;*******************************************************
                       ******************************
  904 00000452         ;continually subtracts the divisor from the dividend whi
                       le counting the number of subtractions
  905 00000452         ;number of subtractions is the quotient



ARM Macro Assembler    Page 28 Program Title for Listing Header Goes Here


  906 00000452         ;at end of subroutine, R1 value is the remainder.
  907 00000452         ;R1/R0 = R0 remainder R1
  908 00000452         ;checks if the divisor is zero
  909 00000452         ;checks if the dividend is zero
  910 00000452         DIVU
  911 00000452 B40C            PUSH             {R2-R3}     ; saves R2 into sta
                                                            ck so main program 
                                                            doesn't overwrite d
                                                            ata
  912 00000454 2200            MOVS             R2,#0       ; initializing the 
                                                            counter to zero
  913 00000456 2800            CMP              R0, #0      ; check if R0=0 (di
                                                            viding by zero)
  914 00000458 D013            BEQ              DivideByZero ; branch if R0=0
  915 0000045A 2900            CMP              R1, #0      ; check if R1=0 (0/
                                                            anything = 0)
  916 0000045C D00E            BEQ              DividendZero ; branch if R1=0
  917 0000045E         ;compare r1 with 0
  918 0000045E         
  919 0000045E         
  920 0000045E         Loop
  921 0000045E 4281            CMP              R1,R0       ; check if there is
                                                             a remainder
  922 00000460 D302            BLO              End_Loop    ; branch to end loo
                                                            p if R0 is greater 
                                                            than R1
  923 00000462 1A09            SUBS             R1,R1,R0    ; subtracting 
  924 00000464 1C52            ADDS             R2,R2,#1    ; adding 1 to count
                                                            er after every subt
                                                            raction
  925 00000466 E7FA            B                Loop        ; continue subtract
                                                            ing 
  926 00000468         
  927 00000468         End_Loop                             ; R0 > R1
  928 00000468 0010            MOVS             R0,R2       ; counter is quotie
                                                            nt, so move it into
                                                             specified register
                                                            
  929 0000046A         
  930 0000046A         Clear_CFlag                          ; clearing c flag a
                                                            fter operation is f
                                                            inished
  931 0000046A F3EF 8200       MRS              R2, APSR    ; taking entire sta
                                                            tus register and pu
                                                            tting it into R2
  932 0000046E 2320            MOVS             R3,#0x20    ; c bit is in 0010
  933 00000470 061B            LSLS             R3,R3,#24   ; move bits all the
                                                             way to the left to
                                                             the front of the 3
                                                            2 bit register
  934 00000472 439A            BICS             R2,R3       ; clears the 28th b
                                                            it which is the c b
                                                            it
  935 00000474 F382 8800       MSR              APSR,R2     ; putting the entir
                                                            e word back into th
                                                            e status register
  936 00000478         
  937 00000478         Done
  938 00000478         



ARM Macro Assembler    Page 29 Program Title for Listing Header Goes Here


  939 00000478 BC0C            POP              {R2-R3}     ; restore to origin
                                                            al value for main p
                                                            rogram to continue
  940 0000047A 4770            BX               LR          ; branching back to
                                                             the address that B
                                                            L is stored in
  941 0000047C         
  942 0000047C         DividendZero
  943 0000047C 2000            MOVS             R0,#0       ; counter is zero: 
                                                            0/anything = 0
  944 0000047E 2100            MOVS             R1,#0       ; remainder is zero
                                                            : 0/anything has re
                                                            mainder of 0
  945 00000480 E7F3            B                Clear_CFlag ; branch so that th
                                                            e division finishes
                                                            
  946 00000482         
  947 00000482         DivideByZero                         ; R0=0 
  948 00000482         
  949 00000482 2001            MOVS             R0,#1       ; move a 1 into R0
  950 00000484 0840            LSRS             R0,R0,#1    ; shift R0 to the r
                                                            ight by one bit (R0
                                                             becomes 0 again)
  951 00000486         ; carry flag is set to 1 from the R0 shift 
  952 00000486         
  953 00000486 E7F7            B                Done
  954 00000488         ;*******************************************************
                       *********************
  955 00000488         NVIC
  956 00000488         ;3rd block
  957 00000488         ;The pit interrupt priority is set to 0, the highest pri
                       ority
  958 00000488         ;add equates to the top
  959 00000488         
  960 00000488 B403            PUSH             {R0-R1}
  961 0000048A 4844            LDR              R0,=NVIC_ISER ;load the address
                                                             into R0
  962 0000048C 4944            LDR              R1,=UART1_IRQ_MASK ;load the is
                                                            r mask into a diffe
                                                            rent register
  963 0000048E 4A45            LDR              R2,=PIT_IRQ_MASK ;load in the p
                                                            it mask
  964 00000490 4311            ORRS             R1,R1,R2    ;or them together
  965 00000492 6001            STR              R1,[R0,#0]  ;store that mask in
                                                            to address in R0
  966 00000494         ;set uart1 irq priority (assumin gonly irq's from uart1)
                       
  967 00000494 4844            LDR              R0,=UART1_IPR ;load the IPR add
                                                            ress
  968 00000496 4945            LDR              R1,=(UART1_IRQ_PRI << UART1_PRI
_POS) 
                                                            ;shift
  969 00000498 6001            STR              R1,[R0,#0]  ;store into ipr
  970 0000049A         ;set pit priority
  971 0000049A 4945            LDR              R1,=PIT_IPR
  972 0000049C 4A31            LDR              R2,=(PIT_IRQ_PRI << PIT_PRI_POS
)
  973 0000049E 600A            STR              R2,[R1,#0]
  974 000004A0         



ARM Macro Assembler    Page 30 Program Title for Listing Header Goes Here


  975 000004A0 B662            CPSIE            I           ;unmask interrupts
  976 000004A2 BC03            POP              {R0-R1}
  977 000004A4 4770            BX               LR
  978 000004A6         ;*******************************************************
                       *********************
  979 000004A6         ;initializes the uart for the specifications for our boa
                       rd
  980 000004A6         ;pushes and pops registers so we can use them in main co
                       de
  981 000004A6         ;sets/clears UART1 bit, moves baud rate of 9600
  982 000004A6         Init_UART1
  983 000004A6 B407            PUSH{R0-R2}                  ; pushing registers
                                                             so that informatio
                                                            n isn't overwritten
                                                            
  984 000004A8         
  985 000004A8         
  986 000004A8         ;Select/configure UART1 sources
  987 000004A8         ;Set SIM_SOPT5 for UART1 External
  988 000004A8 4843            LDR              R0,=SIM_SOPT5
  989 000004AA 4944            LDR              R1,=SIM_SOPT5_UART1_EXTERN_MASK
_CLEAR
  990 000004AC 6802            LDR              R2,[R0,#0]  ;current SIM_SOPT5 
                                                            value
  991 000004AE 438A            BICS             R2,R2,R1    ;only UART1 bits cl
                                                            eared
  992 000004B0 6002            STR              R2,[R0,#0]  ;update SIM_SOPT5
  993 000004B2         
  994 000004B2         ;Enable clocks for UART1 and PORT E
  995 000004B2         ;Set SIM_SCGC4 for UART1 Clock Enabled
  996 000004B2 4843            LDR              R0,=SIM_SCGC4
  997 000004B4 4943            LDR              R1,=SIM_SCGC4_UART1CGC_MASK
  998 000004B6 6802            LDR              R2,[R0,#0]  ;current SIM_SCGC4 
                                                            value
  999 000004B8 430A            ORRS             R2,R2,R1    ;only UART1 bit set
                                                            
 1000 000004BA 6002            STR              R2,[R0,#0]  ;update SIM_SCGC4
 1001 000004BC         
 1002 000004BC         ;Select pins to connect to UART1
 1003 000004BC         ;Set SIM_CGC5 for Port E Clock Enabled
 1004 000004BC 482F            LDR              R0,=SIM_SCGC5
 1005 000004BE 4938            LDR              R1,=SIM_SCGC5_PORTECGC_MASK
 1006 000004C0 6802            LDR              R2,[R0,#0]  ;current SIM_SCGC5 
                                                            value
 1007 000004C2 430A            ORRS             R2,R2,R1    ;only PORTE bit set
                                                            
 1008 000004C4 6002            STR              R2,[R0,#0]  ;update SIM_SCGC5
 1009 000004C6         
 1010 000004C6 482F            LDR              R0,=PORTE_PCR0
 1011 000004C8 493F            LDR              R1,=PORT_PCR_SET_PTE0_UART1_TX
 1012 000004CA 6001            STR              R1,[R0,#0]  ;PortE_PCR0 = UART1
                                                            _TX
 1013 000004CC 483F            LDR              R0,=PORTE_PCR1
 1014 000004CE 493E            LDR              R1,=PORT_PCR_SET_PTE1_UART1_RX
 1015 000004D0 6001            STR              R1,[R0,#0]  ;PortE_PCR1 = UART1
                                                            _RX
 1016 000004D2         
 1017 000004D2         ;Load base address for UART1
 1018 000004D2 4823            LDR              R0,=UART1_BASE ; loading the UA



ARM Macro Assembler    Page 31 Program Title for Listing Header Goes Here


                                                            RT1_BASE into R0
 1019 000004D4         
 1020 000004D4         ;Set UART1 baud rateBDH before BDL
 1021 000004D4         
 1022 000004D4 2100            MOVS             R1,#UART_BDH_9600 ; moving the 
                                                            baud rate of 9600 i
                                                            nto R1
 1023 000004D6 7001            STRB             R1,[R0,#UART_BDH_OFFSET] ; init
                                                            ializing: storing t
                                                            he contents of R0 i
                                                            nto the memory addr
                                                            ess of R1 with offs
                                                            et
 1024 000004D8 219C            MOVS             R1,#UART_BDL_9600
 1025 000004DA 7041            STRB             R1,[R0,#UART_BDL_OFFSET]
 1026 000004DC         
 1027 000004DC         ;Set UART1 character format for serial bit stream
 1028 000004DC 2100            MOVS             R1,#UART_C1_8N1
 1029 000004DE 7081            STRB             R1,[R0,#UART_C1_OFFSET]
 1030 000004E0 2100            MOVS             R1,#UART_C3_NO_TXINV
 1031 000004E2 7181            STRB             R1,[R0,#UART_C3_OFFSET]
 1032 000004E4 2100            MOVS             R1,#UART_C4_NO_DMA
 1033 000004E6 7201            STRB             R1,[R0,#UART_C4_OFFSET]
 1034 000004E8 2100            MOVS             R1,#UART_S2_NO_RXINV_BRK10_NO_L
BKDETECT
 1035 000004EA 7141            STRB             R1,[R0,#UART_S2_OFFSET]
 1036 000004EC         
 1037 000004EC         ;Enable UART1 transmitter and receiver
 1038 000004EC         ;only after preceding instructions
 1039 000004EC 212C            MOVS             R1,#UART_C2_T_RI
 1040 000004EE 70C1            STRB             R1,[R0,#UART_C2_OFFSET]
 1041 000004F0         
 1042 000004F0         
 1043 000004F0 BC07            POP{R0-R2}                   ; popping registers
                                                             so that we can con
                                                            tinue in main code
 1044 000004F2 4770            BX               LR
 1045 000004F4         ;>>>>>   end subroutine code <<<<<
 1046 000004F4                 ALIGN
 1047 000004F4         
 1048 000004F4         ;*******************************************************
                       ***************
 1049 000004F4         Init_PIT
 1050 000004F4         ;Init_PIT initializes the PIT to generate an interrupt e
                       very 10-milliseconds.
 1051 000004F4         ; enables pit
 1052 000004F4         ;sets the timing
 1053 000004F4         ;first two big blocks
 1054 000004F4         
 1055 000004F4 B40E            PUSH{R1-R3}
 1056 000004F6 4936            LDR              R1,=SIM_SCGC6 ;load the sim add
                                                            ress
 1057 000004F8 4A36            LDR              R2,=SIM_SCGC6_PIT_MASK 
                                                            ;load a mask
 1058 000004FA 680B            LDR              R3,[R1,#0]  ;save R1's value in
                                                             a register
 1059 000004FC 4313            ORRS             R3,R3,R2    ;OR the sim address
                                                             and the mask toget
                                                            her



ARM Macro Assembler    Page 32 Program Title for Listing Header Goes Here


 1060 000004FE 600B            STR              R3,[R1,#0]  ;store the number w
                                                            ith enabled/cleared
                                                             bits.
 1061 00000500         
 1062 00000500         ;configures the PIT to generate an interrupt form channe
                       l 0 every 0.01 s
 1063 00000500         ;add equates to code
 1064 00000500         ;overwriting registers
 1065 00000500         ;second block
 1066 00000500 4935            LDR              R1,=PIT_BASE
 1067 00000502 4A36            LDR              R2,=PIT_MCR_EN_FRZ
 1068 00000504 600A            STR              R2,[R1,#PIT_MCR_OFFSET] 
                                                            ;enable PIT module
 1069 00000506 4936            LDR              R1,=PIT_CH0_BASE ;load the chan
                                                            nel 0 base
 1070 00000508 4A36            LDR              R2,=PIT_LDVAL_10ms ;load the mi
                                                            llisecond address
 1071 0000050A 600A            STR              R2,[R1,#PIT_LDVAL_OFFSET] 
                                                            ;interrupt 0.01 s
 1072 0000050C 4A36            LDR              R2,=PIT_TCTRL_CH_IE ;load anoth
                                                            er address
 1073 0000050E 608A            STR              R2,[R1,#PIT_TCTRL_OFFSET] ;stor
                                                            e the TCRL into the
                                                             pit base with TCRL
                                                             offset
 1074 00000510 BC0E            POP{R1-R3}
 1075 00000512 4770            BX               LR
 1076 00000514         
 1077 00000514         ;*******************************************************
                       ***************
 1078 00000514         PIT_ISR
 1079 00000514         ;On a PIT interrupt, if the (byte) variable RunStopWatch
                        is not zero, PIT_ISR increments the (word) variable by 
                       one.
 1080 00000514         ;otherwise, it leaves count unchanged.
 1081 00000514         ;Registers modified: R4 and R5
 1082 00000514 B672            CPSID            I
 1083 00000516 B500            PUSH             {LR}
 1084 00000518         
 1085 00000518 4809            LDR              R0,=Count   ;getting the addres
                                                            s of the count vari
                                                            able
 1086 0000051A 6801            LDR              R1,[R0,#0]  ;getting the value 
                                                            at count's address
 1087 0000051C 4A12            LDR              R2,=RunStopWatch ;getting the a
                                                            ddress of the RunSt
                                                            opWatch variable
 1088 0000051E 7812            LDRB             R2,[R2,#0]  ;getting the value 
                                                            at RunStopWatch's a
                                                            ddress
 1089 00000520         
 1090 00000520 2A00            CMP              R2,#0       ;check if RunStopWa
                                                            tch's value is zero
                                                            
 1091 00000522 D100            BNE              increment_count ;if RunStopWatc
                                                            h is not zero, incr
                                                            ement count by one
 1092 00000524 E001            B                finish_PIT_ISR ;finish the ISR 
                                                            so that it doen't c



ARM Macro Assembler    Page 33 Program Title for Listing Header Goes Here


                                                            ontinue and increme
                                                            nt count
 1093 00000526         
 1094 00000526         increment_count
 1095 00000526 1C49            ADDS             R1,R1,#1    ;increment count by
                                                             one
 1096 00000528 6001            STR              R1,[R0,#0]
 1097 0000052A         finish_PIT_ISR
 1098 0000052A         ;TFLG code in lecture section of mycourses
 1099 0000052A 492D            LDR              R1,=PIT_CH0_BASE
 1100 0000052C 4A2B            LDR              R2,=PIT_TFLG_TIF_MASK
 1101 0000052E 60CA            STR              R2,[R1,#PIT_TFLG_OFFSET]
 1102 00000530 B662            CPSIE            I
 1103 00000532 BD00            POP              {PC}
 1104 00000534         ;*******************************************************
                       ***************
 1105 00000534         
 1106 00000534         ;Vector Table Mapped to Address 0 at Reset
 1107 00000534         ;Linker requires __Vectors to be exported
 1108 00000534 00000000 
              00000000 
              00000000 
              00000000 
              00000000 
              00000000 
              00000000 
              00000000 
              00000000 
              00000000 
              00000000 
              4006B000 
              00000000 
              00000000 
              F80FF0C0 
              00000020 
              F80FF100 
              20000000 
              40048038 
              00003000 
              4004D000 
              01000100 
              4004C000 
              00000000 
              00000000 
              00000000 
              E000E100 
              00002000 
              00400000 
              E000E40C 
              0000C000 
              E000E414 
              00000000 
              40048010 
              00020070 
              40048034 
              00000800 
              01000300 
              4004D004 
              4004803C 



ARM Macro Assembler    Page 34 Program Title for Listing Header Goes Here


              00800000 
              40037000 
              00000001 
              40037100 
              0003A97F 
              00000003 
              00000000 
              00000000         AREA             RESET, DATA, READONLY
 1109 00000000                 EXPORT           __Vectors
 1110 00000000                 EXPORT           __Vectors_End
 1111 00000000                 EXPORT           __Vectors_Size
 1112 00000000                 IMPORT           __initial_sp
 1113 00000000                 IMPORT           Dummy_Handler
 1114 00000000         __Vectors
 1115 00000000         ;ARM core vectors
 1116 00000000 00000000        DCD              __initial_sp ;00:end of stack
 1117 00000004 00000000        DCD              Reset_Handler ;01:reset vector
 1118 00000008 00000000        DCD              Dummy_Handler ;02:NMI
 1119 0000000C 00000000        DCD              Dummy_Handler ;03:hard fault
 1120 00000010 00000000        DCD              Dummy_Handler ;04:(reserved)
 1121 00000014 00000000        DCD              Dummy_Handler ;05:(reserved)
 1122 00000018 00000000        DCD              Dummy_Handler ;06:(reserved)
 1123 0000001C 00000000        DCD              Dummy_Handler ;07:(reserved)
 1124 00000020 00000000        DCD              Dummy_Handler ;08:(reserved)
 1125 00000024 00000000        DCD              Dummy_Handler ;09:(reserved)
 1126 00000028 00000000        DCD              Dummy_Handler ;10:(reserved)
 1127 0000002C 00000000        DCD              Dummy_Handler ;11:SVCall (super
                                                            visor call)
 1128 00000030 00000000        DCD              Dummy_Handler ;12:(reserved)
 1129 00000034 00000000        DCD              Dummy_Handler ;13:(reserved)
 1130 00000038 00000000        DCD              Dummy_Handler ;14:PendableSrvRe
                                                            q (pendable request
                                                             
 1131 0000003C         ;   for system service)
 1132 0000003C 00000000        DCD              Dummy_Handler ;15:SysTick (syst
                                                            em tick timer)
 1133 00000040 00000000        DCD              Dummy_Handler ;16:DMA channel 0
                                                             xfer complete/erro
                                                            r
 1134 00000044 00000000        DCD              Dummy_Handler ;17:DMA channel 1
                                                             xfer complete/erro
                                                            r
 1135 00000048 00000000        DCD              Dummy_Handler ;18:DMA channel 2
                                                             xfer complete/erro
                                                            r
 1136 0000004C 00000000        DCD              Dummy_Handler ;19:DMA channel 3
                                                             xfer complete/erro
                                                            r
 1137 00000050 00000000        DCD              Dummy_Handler ;20:(reserved)
 1138 00000054 00000000        DCD              Dummy_Handler ;21:command compl
                                                            ete; read collision
                                                            
 1139 00000058 00000000        DCD              Dummy_Handler ;22:low-voltage d
                                                            etect;
 1140 0000005C         ;   low-voltage warning
 1141 0000005C 00000000        DCD              Dummy_Handler ;23:low leakage w
                                                            akeup
 1142 00000060 00000000        DCD              Dummy_Handler ;24:I2C0
 1143 00000064 00000000        DCD              Dummy_Handler ;25:I2C1



ARM Macro Assembler    Page 35 Program Title for Listing Header Goes Here


 1144 00000068 00000000        DCD              Dummy_Handler ;26:SPI0 (all IRQ
                                                             sources)
 1145 0000006C 00000000        DCD              Dummy_Handler ;27:SPI1 (all IRQ
                                                             sources)
 1146 00000070 00000000        DCD              Dummy_Handler ;28:UART0 (status
                                                            ; error)
 1147 00000074 00000000        DCD              UART1_ISR   ;29:UART1 (status; 
                                                            error)
 1148 00000078 00000000        DCD              Dummy_Handler ;30:UART2 (status
                                                            ; error)
 1149 0000007C 00000000        DCD              Dummy_Handler ;31:ADC0
 1150 00000080 00000000        DCD              Dummy_Handler ;32:CMP0
 1151 00000084 00000000        DCD              Dummy_Handler ;33:TPM0
 1152 00000088 00000000        DCD              Dummy_Handler ;34:TPM1
 1153 0000008C 00000000        DCD              Dummy_Handler ;35:TPM2
 1154 00000090 00000000        DCD              Dummy_Handler ;36:RTC (alarm)
 1155 00000094 00000000        DCD              Dummy_Handler ;37:RTC (seconds)
                                                            
 1156 00000098 00000000        DCD              PIT_ISR     ;38:PIT (all IRQ so
                                                            urces)
 1157 0000009C 00000000        DCD              Dummy_Handler ;39:I2S0
 1158 000000A0 00000000        DCD              Dummy_Handler ;40:USB0
 1159 000000A4 00000000        DCD              Dummy_Handler ;41:DAC0
 1160 000000A8 00000000        DCD              Dummy_Handler ;42:TSI0
 1161 000000AC 00000000        DCD              Dummy_Handler ;43:MCG
 1162 000000B0 00000000        DCD              Dummy_Handler ;44:LPTMR0
 1163 000000B4 00000000        DCD              Dummy_Handler ;45:Segment LCD
 1164 000000B8 00000000        DCD              Dummy_Handler ;46:PORTA pin det
                                                            ect
 1165 000000BC 00000000        DCD              Dummy_Handler ;47:PORTC and POR
                                                            TD pin detect
 1166 000000C0         __Vectors_End
 1167 000000C0 000000C0 
                       __Vectors_Size
                               EQU              __Vectors_End - __Vectors
 1168 000000C0                 ALIGN
 1169 000000C0         ;*******************************************************
                       *********
 1170 000000C0         ;Constants
 1171 000000C0                 AREA             MyConst,DATA,READONLY
 1172 00000000         ;>>>>> begin constants here <<<<< 
 1173 00000000         ;all prompts and informational strings are null terminat
                       ed.
 1174 00000000 45 6E 74 
              65 72 20 
              61 6E 79 
              20 6B 65 
              79 20 74 
              6F 20 73 
              74 61 72 
              74 20 74 
              68 65 20 
              67 61 6D 
              65 2E 20 
              00       prompt  DCB              "Enter any key to start the gam
e. ",0 
                                                            ; new line, then ",
                                                            0" tells putstring 
                                                            when to stop



ARM Macro Assembler    Page 36 Program Title for Listing Header Goes Here


 1175 00000022 3A 20 57 
              72 6F 6E 
              67 00    wrong   DCB              ": Wrong",0
 1176 0000002A 3A 20 43 
              6F 72 72 
              65 63 74 
              2D 2D 63 
              6F 6C 6F 
              72 20 77 
              61 73 20 
              00       correct DCB              ": Correct--color was ",0
 1177 00000040 3A 20 4F 
              75 74 20 
              6F 66 20 
              74 69 6D 
              65 2D 2D 
              63 6F 6C 
              6F 72 20 
              77 61 73 
              20 00    out_of_time
                               DCB              ": Out of time--color was ",0
 1178 0000005A 72 65 64 
              00       red     DCB              "red",0
 1179 0000005E 67 72 65 
              65 6E 00 green   DCB              "green",0
 1180 00000064 62 6F 74 
              68 00    both    DCB              "both",0
 1181 00000069 6E 65 69 
              74 68 65 
              72 00    neither DCB              "neither",0
 1182 00000071 47 61 6D 
              65 20 6F 
              76 65 72 
              2E 20 59 
              6F 75 72 
              20 73 63 
              6F 72 65 
              20 69 73 
              20 00    your_score_is
                               DCB              "Game over. Your score is ",0
 1183 0000008B 20 70 6F 
              69 6E 74 
              73 21 00 points  DCB              " points!",0
 1184 00000094 52 6F 75 
              6E 64 20 
              23 00    round_number
                               DCB              "Round #",0
 1185 0000009C         
 1186 0000009C 45 6E 74 
              65 72 20 
              74 68 65 
              20 66 6F 
              6C 6C 6F 
              77 69 6E 
              67 20 63 
              68 61 72 
              61 63 74 
              65 72 73 
              20 74 6F 



ARM Macro Assembler    Page 37 Program Title for Listing Header Goes Here


              20 69 6E 
              64 69 63 
              61 74 65 
              20 77 68 
              69 63 68 
              20 4C 45 
              44 20 63 
              6F 6D 62 
              69 6E 61 
              74 69 6F 
              6E 28 73 
              29 20 61 
              72 65 20 
              75 73 65 
              64 3A 00 instruction_1
                               DCB              "Enter the following characters
 to indicate which LED combination(s) are used:",0
 1187 000000EA 28 62 29 
              20 42 6F 
              74 68 20 
              28 6E 29 
              20 4E 65 
              69 74 68 
              65 72 20 
              28 67 29 
              20 47 72 
              65 65 6E 
              20 28 72 
              29 52 65 
              64 00    instruction_2
                               DCB              "(b) Both (n) Neither (g) Green
 (r)Red",0
 1188 00000110         
 1189 00000110         ;>>>>>   end constants here <<<<< 
 1190 00000110         ;Variables
 1191 00000110                 AREA             MyData,DATA,READWRITE
 1192 00000000         ;>>>>> begin variables here <<<<<
 1193 00000000 00 00 00 
              00 00 00 
              00 00 00 
              00 00 00 
              00 00 00 
              00 00 00 
              00 00 00 
              00 00 00 
              00 00 00 
              00 00 00 
              00 00 00 
              00 00 00 
              00 00 00 
              00 00 00 
              00 00 00 
              00 00 00 
              00 00 00 
              00 00 00 
              00 00 00 
              00 00 00 
              00 00 00 
              00 00 00 



ARM Macro Assembler    Page 38 Program Title for Listing Header Goes Here


              00 00 00 
              00 00 00 
              00 00 00 
              00 00 00 
              00 00    RxQBuffer
                               SPACE            Q_BUF_SZ
 1194 00000050                 ALIGN
 1195 00000050 00 00 00 
              00 00 00 
              00 00 00 
              00 00 00 
              00 00 00 
              00 00 00 
              00 00 00 
              00 00 00 
              00 00 00 
              00 00 00 
              00 00 00 
              00 00 00 
              00 00 00 
              00 00 00 
              00 00 00 
              00 00 00 
              00 00 00 
              00 00 00 
              00 00 00 
              00 00 00 
              00 00 00 
              00 00 00 
              00 00 00 
              00 00 00 
              00 00 00 
              00 00 00 
              00 00    TxQBuffer
                               SPACE            Q_BUF_SZ
 1196 000000A0                 ALIGN
 1197 000000A0 00 00 00 
              00 00 00 
              00 00 00 
              00 00 00 
              00 00 00 
              00 00 00 RxQRecord
                               SPACE            Q_REC_SZ
 1198 000000B2 00 00           ALIGN
 1199 000000B4 00 00 00 
              00 00 00 
              00 00 00 
              00 00 00 
              00 00 00 
              00 00 00 TxQRecord
                               SPACE            Q_REC_SZ
 1200 000000C6 00 00           ALIGN
 1201 000000C8 00 00 00 
              00 00 00 
              00 00 00 
              00 00 00 
              00 00 00 
              00 00 00 
              00 00 00 



ARM Macro Assembler    Page 39 Program Title for Listing Header Goes Here


              00 00 00 
              00 00 00 
              00 00 00 
              00 00 00 
              00 00 00 
              00 00 00 
              00 00 00 
              00 00 00 
              00 00 00 
              00 00 00 
              00 00 00 
              00 00 00 
              00 00 00 
              00 00 00 
              00 00 00 
              00 00 00 
              00 00 00 
              00 00 00 
              00 00 00 
              00 00    QBuffer SPACE            Q_BUF_SZ    ;queue contents
 1202 00000118                 ALIGN
 1203 00000118 00 00 00 
              00 00 00 
              00 00 00 
              00 00 00 
              00 00 00 
              00 00 00 QRecord SPACE            Q_REC_SZ    ;queue management r
                                                            ecord
 1204 0000012A 00 00           ALIGN
 1205 0000012C 00 00 00 
              00       Count   SPACE            4
 1206 00000130                 ALIGN
 1207 00000130 00 00 00 
              00       Score   SPACE            4           ;the score of the c
                                                            urrent game
 1208 00000134                 ALIGN
 1209 00000134 00      RunStopWatch
                               SPACE            1
 1210 00000135 00 00 00        ALIGN
 1211 00000138 00 00 00 
              00 00 00 
              00 00 00 
              00 00 00 
              00 00 00 
              00 00 00 
              00 00 00 
              00 00 00 
              00 00 00 
              00 00 00 
              00 00 00 
              00 00 00 
              00 00 00 
              00 00 00 
              00 00 00 
              00 00 00 
              00 00 00 
              00 00 00 
              00 00 00 
              00 00 00 



ARM Macro Assembler    Page 40 Program Title for Listing Header Goes Here


              00 00 00 
              00 00 00 
              00 00 00 
              00 00 00 
              00 00 00 
              00 00 00 
              00       user_string
                               SPACE            MAX_STRING  ;allocate maximum a
                                                            mount of space that
                                                             you need
 1212 00000187 00              ALIGN
 1213 00000188         ;>>>>>   end variables here <<<<<
 1214 00000188                 END
Command Line: --debug --xref --cpu=Cortex-M0+ --apcs=interwork --depend=.\objec
ts\exercise13.d -o.\objects\exercise13.o -IC:\Users\Joshua\Desktop\Exercise13\R
TE -IC:\Keil_v5\ARM\PACK\Keil\Kinetis_KLxx_DFP\1.4.0\Device\Include -IC:\Keil_v
5\ARM\CMSIS\Include --predefine="__EVAL SETA 1" --predefine="__UVISION_VERSION 
SETA 513" --predefine="MKL46Z256xxx4 SETA 1" --list=.\listings\exercise13.lst E
xercise13.s



ARM Macro Assembler    Page 1 Alphabetic symbol ordering
Relocatable symbols

Clear_CFlag 0000046A

Symbol: Clear_CFlag
   Definitions
      At line 930 in file Exercise13.s
   Uses
      At line 945 in file Exercise13.s
Comment: Clear_CFlag used once
CompleteGame 000000D8

Symbol: CompleteGame
   Definitions
      At line 296 in file Exercise13.s
   Uses
      At line 278 in file Exercise13.s
Comment: CompleteGame used once
CopyString 0000023E

Symbol: CopyString
   Definitions
      At line 501 in file Exercise13.s
   Uses
      None
Comment: CopyString unused
CopyStringLoop 00000242

Symbol: CopyStringLoop
   Definitions
      At line 508 in file Exercise13.s
   Uses
      At line 514 in file Exercise13.s
Comment: CopyStringLoop used once
DIVU 00000452

Symbol: DIVU
   Definitions
      At line 910 in file Exercise13.s
   Uses
      At line 838 in file Exercise13.s
Comment: DIVU used once
Dequeue 0000028E

Symbol: Dequeue
   Definitions
      At line 577 in file Exercise13.s
   Uses
      At line 476 in file Exercise13.s
      At line 808 in file Exercise13.s

DivideByZero 00000482

Symbol: DivideByZero
   Definitions
      At line 947 in file Exercise13.s
   Uses
      At line 914 in file Exercise13.s
Comment: DivideByZero used once
DividendZero 0000047C




ARM Macro Assembler    Page 2 Alphabetic symbol ordering
Relocatable symbols

Symbol: DividendZero
   Definitions
      At line 942 in file Exercise13.s
   Uses
      At line 916 in file Exercise13.s
Comment: DividendZero used once
Done 00000478

Symbol: Done
   Definitions
      At line 937 in file Exercise13.s
   Uses
      At line 953 in file Exercise13.s
Comment: Done used once
Done_PNH 00000444

Symbol: Done_PNH
   Definitions
      At line 890 in file Exercise13.s
   Uses
      At line 873 in file Exercise13.s
Comment: Done_PNH used once
End_Loop 00000468

Symbol: End_Loop
   Definitions
      At line 927 in file Exercise13.s
   Uses
      At line 922 in file Exercise13.s
Comment: End_Loop used once
Enqueue 000002C6

Symbol: Enqueue
   Definitions
      At line 618 in file Exercise13.s
   Uses
      At line 493 in file Exercise13.s
      At line 820 in file Exercise13.s

EnqueueDone 000002F2

Symbol: EnqueueDone
   Definitions
      At line 657 in file Exercise13.s
   Uses
      At line 643 in file Exercise13.s
      At line 651 in file Exercise13.s

GameRoundReturn 000001BC

Symbol: GameRoundReturn
   Definitions
      At line 412 in file Exercise13.s
   Uses
      At line 396 in file Exercise13.s
      At line 409 in file Exercise13.s

Game_Round 00000138




ARM Macro Assembler    Page 3 Alphabetic symbol ordering
Relocatable symbols

Symbol: Game_Round
   Definitions
      At line 328 in file Exercise13.s
   Uses
      At line 280 in file Exercise13.s
Comment: Game_Round used once
GetChar 000003C2

Symbol: GetChar
   Definitions
      At line 803 in file Exercise13.s
   Uses
      At line 217 in file Exercise13.s
      At line 342 in file Exercise13.s
      At line 673 in file Exercise13.s
      At line 690 in file Exercise13.s

GetString 000002F6

Symbol: GetString
   Definitions
      At line 666 in file Exercise13.s
   Uses
      None
Comment: GetString unused
Green_off 00000394

Symbol: Green_off
   Definitions
      At line 764 in file Exercise13.s
   Uses
      At line 195 in file Exercise13.s
      At line 246 in file Exercise13.s
      At line 262 in file Exercise13.s

Green_on 000003A0

Symbol: Green_on
   Definitions
      At line 772 in file Exercise13.s
   Uses
      At line 253 in file Exercise13.s
      At line 269 in file Exercise13.s

ISR_dequeue_failure 00000224

Symbol: ISR_dequeue_failure
   Definitions
      At line 481 in file Exercise13.s
   Uses
      At line 477 in file Exercise13.s
Comment: ISR_dequeue_failure used once
InitPortDandE 0000035A

Symbol: InitPortDandE
   Definitions
      At line 724 in file Exercise13.s
   Uses
      At line 185 in file Exercise13.s



ARM Macro Assembler    Page 4 Alphabetic symbol ordering
Relocatable symbols

Comment: InitPortDandE used once
Init_PIT 000004F4

Symbol: Init_PIT
   Definitions
      At line 1049 in file Exercise13.s
   Uses
      At line 184 in file Exercise13.s
Comment: Init_PIT used once
Init_UART1 000004A6

Symbol: Init_UART1
   Definitions
      At line 982 in file Exercise13.s
   Uses
      At line 182 in file Exercise13.s
Comment: Init_UART1 used once
Initialize_Queue_Record 000001BE

Symbol: Initialize_Queue_Record
   Definitions
      At line 417 in file Exercise13.s
   Uses
      At line 181 in file Exercise13.s
Comment: Initialize_Queue_Record used once
LED_Init 0000036A

Symbol: LED_Init
   Definitions
      At line 734 in file Exercise13.s
   Uses
      At line 186 in file Exercise13.s
Comment: LED_Init used once
Loop 0000045E

Symbol: Loop
   Definitions
      At line 920 in file Exercise13.s
   Uses
      At line 925 in file Exercise13.s
Comment: Loop used once
Loop_PNH 00000422

Symbol: Loop_PNH
   Definitions
      At line 871 in file Exercise13.s
   Uses
      At line 884 in file Exercise13.s
      At line 889 in file Exercise13.s

Loop_ReverseString 00000258

Symbol: Loop_ReverseString
   Definitions
      At line 530 in file Exercise13.s
   Uses
      At line 536 in file Exercise13.s
Comment: Loop_ReverseString used once
Loop_SearchString 00000278



ARM Macro Assembler    Page 5 Alphabetic symbol ordering
Relocatable symbols


Symbol: Loop_SearchString
   Definitions
      At line 559 in file Exercise13.s
   Uses
      At line 566 in file Exercise13.s
Comment: Loop_SearchString used once
MyCode 00000000

Symbol: MyCode
   Definitions
      At line 167 in file Exercise13.s
   Uses
      None
Comment: MyCode unused
NVIC 00000488

Symbol: NVIC
   Definitions
      At line 955 in file Exercise13.s
   Uses
      At line 183 in file Exercise13.s
Comment: NVIC used once
PDDR 00000348

Symbol: PDDR
   Definitions
      At line 712 in file Exercise13.s
   Uses
      At line 187 in file Exercise13.s
Comment: PDDR used once
PIT_ISR 00000514

Symbol: PIT_ISR
   Definitions
      At line 1078 in file Exercise13.s
   Uses
      At line 1156 in file Exercise13.s
Comment: PIT_ISR used once
Print_putnumU 000003FE

Symbol: Print_putnumU
   Definitions
      At line 844 in file Exercise13.s
   Uses
      At line 850 in file Exercise13.s
Comment: Print_putnumU used once
PutChar 000003D2

Symbol: PutChar
   Definitions
      At line 815 in file Exercise13.s
   Uses
      At line 289 in file Exercise13.s
      At line 318 in file Exercise13.s
      At line 320 in file Exercise13.s
      At line 337 in file Exercise13.s
      At line 347 in file Exercise13.s
      At line 357 in file Exercise13.s



ARM Macro Assembler    Page 6 Alphabetic symbol ordering
Relocatable symbols

      At line 362 in file Exercise13.s
      At line 674 in file Exercise13.s
      At line 683 in file Exercise13.s
      At line 685 in file Exercise13.s
      At line 706 in file Exercise13.s
      At line 848 in file Exercise13.s
      At line 862 in file Exercise13.s
      At line 864 in file Exercise13.s
      At line 883 in file Exercise13.s
      At line 888 in file Exercise13.s

PutNumHex 0000040E

Symbol: PutNumHex
   Definitions
      At line 855 in file Exercise13.s
   Uses
      None
Comment: PutNumHex unused
PutNumU 000003E8

Symbol: PutNumU
   Definitions
      At line 832 in file Exercise13.s
   Uses
      At line 901 in file Exercise13.s
Comment: PutNumU used once
PutNumUB 00000446

Symbol: PutNumUB
   Definitions
      At line 894 in file Exercise13.s
   Uses
      At line 301 in file Exercise13.s
      At line 334 in file Exercise13.s

PutString 00000330

Symbol: PutString
   Definitions
      At line 697 in file Exercise13.s
   Uses
      At line 205 in file Exercise13.s
      At line 210 in file Exercise13.s
      At line 215 in file Exercise13.s
      At line 291 in file Exercise13.s
      At line 293 in file Exercise13.s
      At line 298 in file Exercise13.s
      At line 303 in file Exercise13.s
      At line 332 in file Exercise13.s
      At line 349 in file Exercise13.s
      At line 351 in file Exercise13.s
      At line 359 in file Exercise13.s

Red_off 00000388

Symbol: Red_off
   Definitions
      At line 756 in file Exercise13.s



ARM Macro Assembler    Page 7 Alphabetic symbol ordering
Relocatable symbols

   Uses
      At line 196 in file Exercise13.s
      At line 245 in file Exercise13.s
      At line 270 in file Exercise13.s

Red_on 0000037C

Symbol: Red_on
   Definitions
      At line 748 in file Exercise13.s
   Uses
      At line 254 in file Exercise13.s
      At line 261 in file Exercise13.s

Reset_Handler 00000000

Symbol: Reset_Handler
   Definitions
      At line 171 in file Exercise13.s
   Uses
      At line 169 in file Exercise13.s
      At line 1117 in file Exercise13.s

Retry 00000150

Symbol: Retry
   Definitions
      At line 338 in file Exercise13.s
   Uses
      At line 390 in file Exercise13.s
Comment: Retry used once
ReverseString 00000252

Symbol: ReverseString
   Definitions
      At line 520 in file Exercise13.s
   Uses
      None
Comment: ReverseString unused
SearchStringChar 00000274

Symbol: SearchStringChar
   Definitions
      At line 548 in file Exercise13.s
   Uses
      None
Comment: SearchStringChar unused
TimerExpired 000000C2

Symbol: TimerExpired
   Definitions
      At line 286 in file Exercise13.s
   Uses
      At line 282 in file Exercise13.s
Comment: TimerExpired used once
UART1_ISR 00000202

Symbol: UART1_ISR
   Definitions



ARM Macro Assembler    Page 8 Alphabetic symbol ordering
Relocatable symbols

      At line 458 in file Exercise13.s
   Uses
      At line 1147 in file Exercise13.s
Comment: UART1_ISR used once
both_setup 0000008A

Symbol: both_setup
   Definitions
      At line 251 in file Exercise13.s
   Uses
      At line 235 in file Exercise13.s
Comment: both_setup used once
call_subroutine 000000B4

Symbol: call_subroutine
   Definitions
      At line 275 in file Exercise13.s
   Uses
      At line 249 in file Exercise13.s
      At line 257 in file Exercise13.s
      At line 265 in file Exercise13.s
      At line 273 in file Exercise13.s

check_pressed 000003AC

Symbol: check_pressed
   Definitions
      At line 781 in file Exercise13.s
   Uses
      At line 339 in file Exercise13.s
Comment: check_pressed used once
check_receive 00000228

Symbol: check_receive
   Definitions
      At line 485 in file Exercise13.s
   Uses
      At line 468 in file Exercise13.s
      At line 473 in file Exercise13.s
      At line 479 in file Exercise13.s

correct_answer 00000162

Symbol: correct_answer
   Definitions
      At line 346 in file Exercise13.s
   Uses
      At line 344 in file Exercise13.s
Comment: correct_answer used once
didnt_find 0000028A

Symbol: didnt_find
   Definitions
      At line 570 in file Exercise13.s
   Uses
      At line 565 in file Exercise13.s
Comment: didnt_find used once
done_check 000003BE




ARM Macro Assembler    Page 9 Alphabetic symbol ordering
Relocatable symbols

Symbol: done_check
   Definitions
      At line 794 in file Exercise13.s
   Uses
      At line 791 in file Exercise13.s
Comment: done_check used once
done_reverse 00000270

Symbol: done_reverse
   Definitions
      At line 544 in file Exercise13.s
   Uses
      At line 542 in file Exercise13.s
Comment: done_reverse used once
end_loop 00000316

Symbol: end_loop
   Definitions
      At line 682 in file Exercise13.s
   Uses
      At line 676 in file Exercise13.s
      At line 692 in file Exercise13.s

end_of_string 00000346

Symbol: end_of_string
   Definitions
      At line 709 in file Exercise13.s
   Uses
      At line 704 in file Exercise13.s
Comment: end_of_string used once
endofstring_CS 0000024E

Symbol: endofstring_CS
   Definitions
      At line 515 in file Exercise13.s
   Uses
      At line 513 in file Exercise13.s
Comment: endofstring_CS used once
finish_ISR 0000023A

Symbol: finish_ISR
   Definitions
      At line 495 in file Exercise13.s
   Uses
      At line 490 in file Exercise13.s
Comment: finish_ISR used once
finish_PIT_ISR 0000052A

Symbol: finish_PIT_ISR
   Definitions
      At line 1097 in file Exercise13.s
   Uses
      At line 1092 in file Exercise13.s
Comment: finish_PIT_ISR used once
found 00000286

Symbol: found
   Definitions



ARM Macro Assembler    Page 10 Alphabetic symbol ordering
Relocatable symbols

      At line 567 in file Exercise13.s
   Uses
      At line 563 in file Exercise13.s
      At line 572 in file Exercise13.s

get_loop 000003C6

Symbol: get_loop
   Definitions
      At line 806 in file Exercise13.s
   Uses
      At line 810 in file Exercise13.s
Comment: get_loop used once
gotchar 000003BC

Symbol: gotchar
   Definitions
      At line 792 in file Exercise13.s
   Uses
      At line 789 in file Exercise13.s
Comment: gotchar used once
greaterthan10_PNH 0000043A

Symbol: greaterthan10_PNH
   Definitions
      At line 885 in file Exercise13.s
   Uses
      At line 880 in file Exercise13.s
Comment: greaterthan10_PNH used once
green_setup 000000A6

Symbol: green_setup
   Definitions
      At line 267 in file Exercise13.s
   Uses
      At line 241 in file Exercise13.s
Comment: green_setup used once
incorrect 00000178

Symbol: incorrect
   Definitions
      At line 355 in file Exercise13.s
   Uses
      At line 345 in file Exercise13.s
Comment: incorrect used once
increase_score 000001B2

Symbol: increase_score
   Definitions
      At line 398 in file Exercise13.s
   Uses
      At line 353 in file Exercise13.s
Comment: increase_score used once
increment_count 00000526

Symbol: increment_count
   Definitions
      At line 1094 in file Exercise13.s
   Uses



ARM Macro Assembler    Page 11 Alphabetic symbol ordering
Relocatable symbols

      At line 1091 in file Exercise13.s
Comment: increment_count used once
loop_PNU 000003EC

Symbol: loop_PNU
   Definitions
      At line 835 in file Exercise13.s
   Uses
      At line 843 in file Exercise13.s
Comment: loop_PNU used once
main 00000000

Symbol: main
   Definitions
      At line 172 in file Exercise13.s
   Uses
      None
Comment: main unused
max_string_length 00000326

Symbol: max_string_length
   Definitions
      At line 689 in file Exercise13.s
   Uses
      At line 678 in file Exercise13.s
      At line 693 in file Exercise13.s

neither_setup 0000007C

Symbol: neither_setup
   Definitions
      At line 243 in file Exercise13.s
   Uses
      At line 232 in file Exercise13.s
Comment: neither_setup used once
newline 00000128

Symbol: newline
   Definitions
      At line 315 in file Exercise13.s
   Uses
      At line 202 in file Exercise13.s
      At line 207 in file Exercise13.s
      At line 212 in file Exercise13.s
      At line 216 in file Exercise13.s
      At line 294 in file Exercise13.s
      At line 335 in file Exercise13.s
      At line 352 in file Exercise13.s
      At line 360 in file Exercise13.s

not_pressed 0000018C

Symbol: not_pressed
   Definitions
      At line 364 in file Exercise13.s
   Uses
      At line 341 in file Exercise13.s
Comment: not_pressed used once
null_loop 00000264



ARM Macro Assembler    Page 12 Alphabetic symbol ordering
Relocatable symbols


Symbol: null_loop
   Definitions
      At line 537 in file Exercise13.s
   Uses
      At line 533 in file Exercise13.s
      At line 543 in file Exercise13.s

outside_buffer_DQ 000002B2

Symbol: outside_buffer_DQ
   Definitions
      At line 605 in file Exercise13.s
   Uses
      At line 599 in file Exercise13.s
Comment: outside_buffer_DQ used once
outside_buffer_EQ 000002E4

Symbol: outside_buffer_EQ
   Definitions
      At line 645 in file Exercise13.s
   Uses
      At line 640 in file Exercise13.s
Comment: outside_buffer_EQ used once
put_loop 000003D6

Symbol: put_loop
   Definitions
      At line 818 in file Exercise13.s
   Uses
      At line 822 in file Exercise13.s
Comment: put_loop used once
putnumU_finished 0000040C

Symbol: putnumU_finished
   Definitions
      At line 851 in file Exercise13.s
   Uses
      At line 846 in file Exercise13.s
Comment: putnumU_finished used once
queue_empty_DQ 000002BE

Symbol: queue_empty_DQ
   Definitions
      At line 612 in file Exercise13.s
   Uses
      At line 588 in file Exercise13.s
Comment: queue_empty_DQ used once
queue_full_EQ 000002EE

Symbol: queue_full_EQ
   Definitions
      At line 653 in file Exercise13.s
   Uses
      At line 630 in file Exercise13.s
Comment: queue_full_EQ used once
red_setup 00000098

Symbol: red_setup



ARM Macro Assembler    Page 13 Alphabetic symbol ordering
Relocatable symbols

   Definitions
      At line 259 in file Exercise13.s
   Uses
      At line 238 in file Exercise13.s
Comment: red_setup used once
round 0000005E

Symbol: round
   Definitions
      At line 219 in file Exercise13.s
   Uses
      At line 283 in file Exercise13.s
Comment: round used once
start 00000024

Symbol: start
   Definitions
      At line 190 in file Exercise13.s
   Uses
      At line 304 in file Exercise13.s
Comment: start used once
while_get_string 00000300

Symbol: while_get_string
   Definitions
      At line 672 in file Exercise13.s
   Uses
      At line 681 in file Exercise13.s
Comment: while_get_string used once
while_length_string 00000338

Symbol: while_length_string
   Definitions
      At line 702 in file Exercise13.s
   Uses
      At line 708 in file Exercise13.s
Comment: while_length_string used once
86 symbols



ARM Macro Assembler    Page 1 Alphabetic symbol ordering
Relocatable symbols

RESET 00000000

Symbol: RESET
   Definitions
      At line 1108 in file Exercise13.s
   Uses
      None
Comment: RESET unused
__Vectors 00000000

Symbol: __Vectors
   Definitions
      At line 1114 in file Exercise13.s
   Uses
      At line 1109 in file Exercise13.s
      At line 1167 in file Exercise13.s

__Vectors_End 000000C0

Symbol: __Vectors_End
   Definitions
      At line 1166 in file Exercise13.s
   Uses
      At line 1110 in file Exercise13.s
      At line 1167 in file Exercise13.s

3 symbols



ARM Macro Assembler    Page 1 Alphabetic symbol ordering
Relocatable symbols

MyConst 00000000

Symbol: MyConst
   Definitions
      At line 1171 in file Exercise13.s
   Uses
      None
Comment: MyConst unused
both 00000064

Symbol: both
   Definitions
      At line 1180 in file Exercise13.s
   Uses
      At line 255 in file Exercise13.s
Comment: both used once
correct 0000002A

Symbol: correct
   Definitions
      At line 1176 in file Exercise13.s
   Uses
      At line 348 in file Exercise13.s
Comment: correct used once
green 0000005E

Symbol: green
   Definitions
      At line 1179 in file Exercise13.s
   Uses
      At line 271 in file Exercise13.s
Comment: green used once
instruction_1 0000009C

Symbol: instruction_1
   Definitions
      At line 1186 in file Exercise13.s
   Uses
      At line 204 in file Exercise13.s
Comment: instruction_1 used once
instruction_2 000000EA

Symbol: instruction_2
   Definitions
      At line 1187 in file Exercise13.s
   Uses
      At line 209 in file Exercise13.s
Comment: instruction_2 used once
neither 00000069

Symbol: neither
   Definitions
      At line 1181 in file Exercise13.s
   Uses
      At line 247 in file Exercise13.s
Comment: neither used once
out_of_time 00000040

Symbol: out_of_time



ARM Macro Assembler    Page 2 Alphabetic symbol ordering
Relocatable symbols

   Definitions
      At line 1177 in file Exercise13.s
   Uses
      At line 290 in file Exercise13.s
Comment: out_of_time used once
points 0000008B

Symbol: points
   Definitions
      At line 1183 in file Exercise13.s
   Uses
      At line 302 in file Exercise13.s
Comment: points used once
prompt 00000000

Symbol: prompt
   Definitions
      At line 1174 in file Exercise13.s
   Uses
      At line 214 in file Exercise13.s
Comment: prompt used once
red 0000005A

Symbol: red
   Definitions
      At line 1178 in file Exercise13.s
   Uses
      At line 263 in file Exercise13.s
Comment: red used once
round_number 00000094

Symbol: round_number
   Definitions
      At line 1184 in file Exercise13.s
   Uses
      At line 331 in file Exercise13.s
Comment: round_number used once
wrong 00000022

Symbol: wrong
   Definitions
      At line 1175 in file Exercise13.s
   Uses
      At line 358 in file Exercise13.s
Comment: wrong used once
your_score_is 00000071

Symbol: your_score_is
   Definitions
      At line 1182 in file Exercise13.s
   Uses
      At line 297 in file Exercise13.s
Comment: your_score_is used once
14 symbols



ARM Macro Assembler    Page 1 Alphabetic symbol ordering
Relocatable symbols

Count 0000012C

Symbol: Count
   Definitions
      At line 1205 in file Exercise13.s
   Uses
      At line 221 in file Exercise13.s
      At line 366 in file Exercise13.s
      At line 1085 in file Exercise13.s

MyData 00000000

Symbol: MyData
   Definitions
      At line 1191 in file Exercise13.s
   Uses
      None
Comment: MyData unused
QBuffer 000000C8

Symbol: QBuffer
   Definitions
      At line 1201 in file Exercise13.s
   Uses
      At line 443 in file Exercise13.s
Comment: QBuffer used once
QRecord 00000118

Symbol: QRecord
   Definitions
      At line 1203 in file Exercise13.s
   Uses
      At line 444 in file Exercise13.s
Comment: QRecord used once
RunStopWatch 00000134

Symbol: RunStopWatch
   Definitions
      At line 1209 in file Exercise13.s
   Uses
      At line 198 in file Exercise13.s
      At line 1087 in file Exercise13.s

RxQBuffer 00000000

Symbol: RxQBuffer
   Definitions
      At line 1193 in file Exercise13.s
   Uses
      At line 419 in file Exercise13.s
Comment: RxQBuffer used once
RxQRecord 000000A0

Symbol: RxQRecord
   Definitions
      At line 1197 in file Exercise13.s
   Uses
      At line 420 in file Exercise13.s
      At line 492 in file Exercise13.s



ARM Macro Assembler    Page 2 Alphabetic symbol ordering
Relocatable symbols

      At line 784 in file Exercise13.s
      At line 805 in file Exercise13.s

Score 00000130

Symbol: Score
   Definitions
      At line 1207 in file Exercise13.s
   Uses
      At line 192 in file Exercise13.s
      At line 299 in file Exercise13.s
      At line 403 in file Exercise13.s

TxQBuffer 00000050

Symbol: TxQBuffer
   Definitions
      At line 1195 in file Exercise13.s
   Uses
      At line 431 in file Exercise13.s
Comment: TxQBuffer used once
TxQRecord 000000B4

Symbol: TxQRecord
   Definitions
      At line 1199 in file Exercise13.s
   Uses
      At line 432 in file Exercise13.s
      At line 475 in file Exercise13.s
      At line 817 in file Exercise13.s

user_string 00000138

Symbol: user_string
   Definitions
      At line 1211 in file Exercise13.s
   Uses
      None
Comment: user_string unused
11 symbols



ARM Macro Assembler    Page 1 Alphabetic symbol ordering
Absolute symbols

ADC0_BASE 4003B000

Symbol: ADC0_BASE
   Definitions
      At line 98 in file MKL46Z4.s
   Uses
      At line 126 in file MKL46Z4.s
      At line 127 in file MKL46Z4.s
      At line 128 in file MKL46Z4.s
      At line 129 in file MKL46Z4.s
      At line 130 in file MKL46Z4.s
      At line 131 in file MKL46Z4.s
      At line 132 in file MKL46Z4.s
      At line 133 in file MKL46Z4.s
      At line 134 in file MKL46Z4.s
      At line 135 in file MKL46Z4.s
      At line 136 in file MKL46Z4.s
      At line 137 in file MKL46Z4.s
      At line 138 in file MKL46Z4.s
      At line 139 in file MKL46Z4.s
      At line 140 in file MKL46Z4.s
      At line 141 in file MKL46Z4.s
      At line 142 in file MKL46Z4.s
      At line 143 in file MKL46Z4.s
      At line 144 in file MKL46Z4.s
      At line 145 in file MKL46Z4.s
      At line 146 in file MKL46Z4.s
      At line 147 in file MKL46Z4.s
      At line 148 in file MKL46Z4.s
      At line 149 in file MKL46Z4.s
      At line 150 in file MKL46Z4.s
      At line 151 in file MKL46Z4.s
      At line 152 in file MKL46Z4.s

ADC0_CFG1 4003B008

Symbol: ADC0_CFG1
   Definitions
      At line 126 in file MKL46Z4.s
   Uses
      None
Comment: ADC0_CFG1 unused
ADC0_CFG2 4003B00C

Symbol: ADC0_CFG2
   Definitions
      At line 127 in file MKL46Z4.s
   Uses
      None
Comment: ADC0_CFG2 unused
ADC0_CLM0 4003B06C

Symbol: ADC0_CLM0
   Definitions
      At line 130 in file MKL46Z4.s
   Uses
      None
Comment: ADC0_CLM0 unused
ADC0_CLM1 4003B068



ARM Macro Assembler    Page 2 Alphabetic symbol ordering
Absolute symbols


Symbol: ADC0_CLM1
   Definitions
      At line 131 in file MKL46Z4.s
   Uses
      None
Comment: ADC0_CLM1 unused
ADC0_CLM2 4003B064

Symbol: ADC0_CLM2
   Definitions
      At line 132 in file MKL46Z4.s
   Uses
      None
Comment: ADC0_CLM2 unused
ADC0_CLM3 4003B060

Symbol: ADC0_CLM3
   Definitions
      At line 133 in file MKL46Z4.s
   Uses
      None
Comment: ADC0_CLM3 unused
ADC0_CLM4 4003B05C

Symbol: ADC0_CLM4
   Definitions
      At line 134 in file MKL46Z4.s
   Uses
      None
Comment: ADC0_CLM4 unused
ADC0_CLMD 4003B054

Symbol: ADC0_CLMD
   Definitions
      At line 128 in file MKL46Z4.s
   Uses
      None
Comment: ADC0_CLMD unused
ADC0_CLMS 4003B058

Symbol: ADC0_CLMS
   Definitions
      At line 129 in file MKL46Z4.s
   Uses
      None
Comment: ADC0_CLMS unused
ADC0_CLP0 4003B04C

Symbol: ADC0_CLP0
   Definitions
      At line 137 in file MKL46Z4.s
   Uses
      None
Comment: ADC0_CLP0 unused
ADC0_CLP1 4003B048

Symbol: ADC0_CLP1
   Definitions



ARM Macro Assembler    Page 3 Alphabetic symbol ordering
Absolute symbols

      At line 138 in file MKL46Z4.s
   Uses
      None
Comment: ADC0_CLP1 unused
ADC0_CLP2 4003B044

Symbol: ADC0_CLP2
   Definitions
      At line 139 in file MKL46Z4.s
   Uses
      None
Comment: ADC0_CLP2 unused
ADC0_CLP3 4003B040

Symbol: ADC0_CLP3
   Definitions
      At line 140 in file MKL46Z4.s
   Uses
      None
Comment: ADC0_CLP3 unused
ADC0_CLP4 4003B03C

Symbol: ADC0_CLP4
   Definitions
      At line 141 in file MKL46Z4.s
   Uses
      None
Comment: ADC0_CLP4 unused
ADC0_CLPD 4003B034

Symbol: ADC0_CLPD
   Definitions
      At line 135 in file MKL46Z4.s
   Uses
      None
Comment: ADC0_CLPD unused
ADC0_CLPS 4003B038

Symbol: ADC0_CLPS
   Definitions
      At line 136 in file MKL46Z4.s
   Uses
      None
Comment: ADC0_CLPS unused
ADC0_CV1 4003B018

Symbol: ADC0_CV1
   Definitions
      At line 142 in file MKL46Z4.s
   Uses
      None
Comment: ADC0_CV1 unused
ADC0_CV2 4003B01C

Symbol: ADC0_CV2
   Definitions
      At line 143 in file MKL46Z4.s
   Uses
      None



ARM Macro Assembler    Page 4 Alphabetic symbol ordering
Absolute symbols

Comment: ADC0_CV2 unused
ADC0_IPR E000E40C

Symbol: ADC0_IPR
   Definitions
      At line 996 in file MKL46Z4.s
   Uses
      None
Comment: ADC0_IPR unused
ADC0_IRQ 0000000F

Symbol: ADC0_IRQ
   Definitions
      At line 1066 in file MKL46Z4.s
   Uses
      At line 1100 in file MKL46Z4.s
Comment: ADC0_IRQ used once
ADC0_IRQ_MASK 00008000

Symbol: ADC0_IRQ_MASK
   Definitions
      At line 1100 in file MKL46Z4.s
   Uses
      None
Comment: ADC0_IRQ_MASK unused
ADC0_MG 4003B030

Symbol: ADC0_MG
   Definitions
      At line 144 in file MKL46Z4.s
   Uses
      None
Comment: ADC0_MG unused
ADC0_OFS 4003B028

Symbol: ADC0_OFS
   Definitions
      At line 145 in file MKL46Z4.s
   Uses
      None
Comment: ADC0_OFS unused
ADC0_PG 4003B02C

Symbol: ADC0_PG
   Definitions
      At line 146 in file MKL46Z4.s
   Uses
      None
Comment: ADC0_PG unused
ADC0_PRI_POS 0000001E

Symbol: ADC0_PRI_POS
   Definitions
      At line 1032 in file MKL46Z4.s
   Uses
      None
Comment: ADC0_PRI_POS unused
ADC0_RA 4003B010




ARM Macro Assembler    Page 5 Alphabetic symbol ordering
Absolute symbols

Symbol: ADC0_RA
   Definitions
      At line 147 in file MKL46Z4.s
   Uses
      None
Comment: ADC0_RA unused
ADC0_RB 4003B014

Symbol: ADC0_RB
   Definitions
      At line 148 in file MKL46Z4.s
   Uses
      None
Comment: ADC0_RB unused
ADC0_SC1A 4003B000

Symbol: ADC0_SC1A
   Definitions
      At line 149 in file MKL46Z4.s
   Uses
      None
Comment: ADC0_SC1A unused
ADC0_SC1B 4003B004

Symbol: ADC0_SC1B
   Definitions
      At line 150 in file MKL46Z4.s
   Uses
      None
Comment: ADC0_SC1B unused
ADC0_SC2 4003B020

Symbol: ADC0_SC2
   Definitions
      At line 151 in file MKL46Z4.s
   Uses
      None
Comment: ADC0_SC2 unused
ADC0_SC3 4003B024

Symbol: ADC0_SC3
   Definitions
      At line 152 in file MKL46Z4.s
   Uses
      None
Comment: ADC0_SC3 unused
ADC0_Vector 0000001F

Symbol: ADC0_Vector
   Definitions
      At line 1150 in file MKL46Z4.s
   Uses
      None
Comment: ADC0_Vector unused
ADC_ACFE_MASK 00000020

Symbol: ADC_ACFE_MASK
   Definitions
      At line 405 in file MKL46Z4.s



ARM Macro Assembler    Page 6 Alphabetic symbol ordering
Absolute symbols

   Uses
      None
Comment: ADC_ACFE_MASK unused
ADC_ACFE_SHIFT 00000005

Symbol: ADC_ACFE_SHIFT
   Definitions
      At line 406 in file MKL46Z4.s
   Uses
      None
Comment: ADC_ACFE_SHIFT unused
ADC_ACFGT_MASK 00000010

Symbol: ADC_ACFGT_MASK
   Definitions
      At line 407 in file MKL46Z4.s
   Uses
      None
Comment: ADC_ACFGT_MASK unused
ADC_ACFGT_SHIFT 00000004

Symbol: ADC_ACFGT_SHIFT
   Definitions
      At line 408 in file MKL46Z4.s
   Uses
      None
Comment: ADC_ACFGT_SHIFT unused
ADC_ACREN_MASK 00000008

Symbol: ADC_ACREN_MASK
   Definitions
      At line 409 in file MKL46Z4.s
   Uses
      None
Comment: ADC_ACREN_MASK unused
ADC_ACREN_SHIFT 00000003

Symbol: ADC_ACREN_SHIFT
   Definitions
      At line 410 in file MKL46Z4.s
   Uses
      None
Comment: ADC_ACREN_SHIFT unused
ADC_ADACT_MASK 00000080

Symbol: ADC_ADACT_MASK
   Definitions
      At line 401 in file MKL46Z4.s
   Uses
      None
Comment: ADC_ADACT_MASK unused
ADC_ADACT_SHIFT 00000007

Symbol: ADC_ADACT_SHIFT
   Definitions
      At line 402 in file MKL46Z4.s
   Uses
      None
Comment: ADC_ADACT_SHIFT unused



ARM Macro Assembler    Page 7 Alphabetic symbol ordering
Absolute symbols

ADC_ADCH_MASK 0000001F

Symbol: ADC_ADCH_MASK
   Definitions
      At line 378 in file MKL46Z4.s
   Uses
      None
Comment: ADC_ADCH_MASK unused
ADC_ADCH_SHIFT 00000000

Symbol: ADC_ADCH_SHIFT
   Definitions
      At line 379 in file MKL46Z4.s
   Uses
      None
Comment: ADC_ADCH_SHIFT unused
ADC_ADCO_MASK 00000008

Symbol: ADC_ADCO_MASK
   Definitions
      At line 432 in file MKL46Z4.s
   Uses
      None
Comment: ADC_ADCO_MASK unused
ADC_ADCO_SHIFT 00000003

Symbol: ADC_ADCO_SHIFT
   Definitions
      At line 433 in file MKL46Z4.s
   Uses
      None
Comment: ADC_ADCO_SHIFT unused
ADC_ADTRG_MASK 00000040

Symbol: ADC_ADTRG_MASK
   Definitions
      At line 403 in file MKL46Z4.s
   Uses
      None
Comment: ADC_ADTRG_MASK unused
ADC_ADTRG_SHIFT 00000006

Symbol: ADC_ADTRG_SHIFT
   Definitions
      At line 404 in file MKL46Z4.s
   Uses
      None
Comment: ADC_ADTRG_SHIFT unused
ADC_AIEN_MASK 00000040

Symbol: ADC_AIEN_MASK
   Definitions
      At line 374 in file MKL46Z4.s
   Uses
      None
Comment: ADC_AIEN_MASK unused
ADC_AIEN_SHIFT 00000006

Symbol: ADC_AIEN_SHIFT



ARM Macro Assembler    Page 8 Alphabetic symbol ordering
Absolute symbols

   Definitions
      At line 375 in file MKL46Z4.s
   Uses
      None
Comment: ADC_AIEN_SHIFT unused
ADC_AVGE_MASK 00000004

Symbol: ADC_AVGE_MASK
   Definitions
      At line 434 in file MKL46Z4.s
   Uses
      None
Comment: ADC_AVGE_MASK unused
ADC_AVGE_SHIFT 00000002

Symbol: ADC_AVGE_SHIFT
   Definitions
      At line 435 in file MKL46Z4.s
   Uses
      None
Comment: ADC_AVGE_SHIFT unused
ADC_AVGS_MASK 00000003

Symbol: ADC_AVGS_MASK
   Definitions
      At line 436 in file MKL46Z4.s
   Uses
      None
Comment: ADC_AVGS_MASK unused
ADC_AVGS_SHIFT 00000000

Symbol: ADC_AVGS_SHIFT
   Definitions
      At line 437 in file MKL46Z4.s
   Uses
      None
Comment: ADC_AVGS_SHIFT unused
ADC_CALF_MASK 00000040

Symbol: ADC_CALF_MASK
   Definitions
      At line 430 in file MKL46Z4.s
   Uses
      None
Comment: ADC_CALF_MASK unused
ADC_CALF_SHIFT 00000006

Symbol: ADC_CALF_SHIFT
   Definitions
      At line 431 in file MKL46Z4.s
   Uses
      None
Comment: ADC_CALF_SHIFT unused
ADC_CAL_MASK 00000080

Symbol: ADC_CAL_MASK
   Definitions
      At line 428 in file MKL46Z4.s
   Uses



ARM Macro Assembler    Page 9 Alphabetic symbol ordering
Absolute symbols

      None
Comment: ADC_CAL_MASK unused
ADC_CAL_SHIFT 00000007

Symbol: ADC_CAL_SHIFT
   Definitions
      At line 429 in file MKL46Z4.s
   Uses
      None
Comment: ADC_CAL_SHIFT unused
ADC_CFG1_ADICLK_MASK 00000003

Symbol: ADC_CFG1_ADICLK_MASK
   Definitions
      At line 184 in file MKL46Z4.s
   Uses
      None
Comment: ADC_CFG1_ADICLK_MASK unused
ADC_CFG1_ADICLK_SHIFT 00000000

Symbol: ADC_CFG1_ADICLK_SHIFT
   Definitions
      At line 185 in file MKL46Z4.s
   Uses
      None
Comment: ADC_CFG1_ADICLK_SHIFT unused
ADC_CFG1_ADIV_MASK 00000060

Symbol: ADC_CFG1_ADIV_MASK
   Definitions
      At line 178 in file MKL46Z4.s
   Uses
      None
Comment: ADC_CFG1_ADIV_MASK unused
ADC_CFG1_ADIV_SHIFT 00000005

Symbol: ADC_CFG1_ADIV_SHIFT
   Definitions
      At line 179 in file MKL46Z4.s
   Uses
      None
Comment: ADC_CFG1_ADIV_SHIFT unused
ADC_CFG1_ADLPC_MASK 00000080

Symbol: ADC_CFG1_ADLPC_MASK
   Definitions
      At line 176 in file MKL46Z4.s
   Uses
      None
Comment: ADC_CFG1_ADLPC_MASK unused
ADC_CFG1_ADLPC_SHIFT 00000007

Symbol: ADC_CFG1_ADLPC_SHIFT
   Definitions
      At line 177 in file MKL46Z4.s
   Uses
      None
Comment: ADC_CFG1_ADLPC_SHIFT unused
ADC_CFG1_ADLSMP_MASK 00000010



ARM Macro Assembler    Page 10 Alphabetic symbol ordering
Absolute symbols


Symbol: ADC_CFG1_ADLSMP_MASK
   Definitions
      At line 180 in file MKL46Z4.s
   Uses
      None
Comment: ADC_CFG1_ADLSMP_MASK unused
ADC_CFG1_ADLSMP_SHIFT 00000004

Symbol: ADC_CFG1_ADLSMP_SHIFT
   Definitions
      At line 181 in file MKL46Z4.s
   Uses
      None
Comment: ADC_CFG1_ADLSMP_SHIFT unused
ADC_CFG1_MODE_MASK 0000000C

Symbol: ADC_CFG1_MODE_MASK
   Definitions
      At line 182 in file MKL46Z4.s
   Uses
      None
Comment: ADC_CFG1_MODE_MASK unused
ADC_CFG1_MODE_SHIFT 00000002

Symbol: ADC_CFG1_MODE_SHIFT
   Definitions
      At line 183 in file MKL46Z4.s
   Uses
      None
Comment: ADC_CFG1_MODE_SHIFT unused
ADC_CFG1_OFFSET 00000008

Symbol: ADC_CFG1_OFFSET
   Definitions
      At line 101 in file MKL46Z4.s
   Uses
      At line 126 in file MKL46Z4.s
Comment: ADC_CFG1_OFFSET used once
ADC_CFG2_ADACKEN_MASK 00000008

Symbol: ADC_CFG2_ADACKEN_MASK
   Definitions
      At line 207 in file MKL46Z4.s
   Uses
      None
Comment: ADC_CFG2_ADACKEN_MASK unused
ADC_CFG2_ADACKEN_SHIFT 00000003

Symbol: ADC_CFG2_ADACKEN_SHIFT
   Definitions
      At line 208 in file MKL46Z4.s
   Uses
      None
Comment: ADC_CFG2_ADACKEN_SHIFT unused
ADC_CFG2_ADHSC_MASK 00000004

Symbol: ADC_CFG2_ADHSC_MASK
   Definitions



ARM Macro Assembler    Page 11 Alphabetic symbol ordering
Absolute symbols

      At line 209 in file MKL46Z4.s
   Uses
      None
Comment: ADC_CFG2_ADHSC_MASK unused
ADC_CFG2_ADHSC_SHIFT 00000002

Symbol: ADC_CFG2_ADHSC_SHIFT
   Definitions
      At line 210 in file MKL46Z4.s
   Uses
      None
Comment: ADC_CFG2_ADHSC_SHIFT unused
ADC_CFG2_ADLSTS_MASK 00000003

Symbol: ADC_CFG2_ADLSTS_MASK
   Definitions
      At line 211 in file MKL46Z4.s
   Uses
      None
Comment: ADC_CFG2_ADLSTS_MASK unused
ADC_CFG2_ADLSTS_SHIFT 00000000

Symbol: ADC_CFG2_ADLSTS_SHIFT
   Definitions
      At line 212 in file MKL46Z4.s
   Uses
      None
Comment: ADC_CFG2_ADLSTS_SHIFT unused
ADC_CFG2_MUXSEL_MASK 00000010

Symbol: ADC_CFG2_MUXSEL_MASK
   Definitions
      At line 205 in file MKL46Z4.s
   Uses
      None
Comment: ADC_CFG2_MUXSEL_MASK unused
ADC_CFG2_MUXSEL_SHIFT 00000004

Symbol: ADC_CFG2_MUXSEL_SHIFT
   Definitions
      At line 206 in file MKL46Z4.s
   Uses
      None
Comment: ADC_CFG2_MUXSEL_SHIFT unused
ADC_CFG2_OFFSET 0000000C

Symbol: ADC_CFG2_OFFSET
   Definitions
      At line 102 in file MKL46Z4.s
   Uses
      At line 127 in file MKL46Z4.s
Comment: ADC_CFG2_OFFSET used once
ADC_CLM0_MASK 0000003F

Symbol: ADC_CLM0_MASK
   Definitions
      At line 229 in file MKL46Z4.s
   Uses
      None



ARM Macro Assembler    Page 12 Alphabetic symbol ordering
Absolute symbols

Comment: ADC_CLM0_MASK unused
ADC_CLM0_OFFSET 0000006C

Symbol: ADC_CLM0_OFFSET
   Definitions
      At line 125 in file MKL46Z4.s
   Uses
      At line 130 in file MKL46Z4.s
Comment: ADC_CLM0_OFFSET used once
ADC_CLM0_SHIFT 00000000

Symbol: ADC_CLM0_SHIFT
   Definitions
      At line 230 in file MKL46Z4.s
   Uses
      None
Comment: ADC_CLM0_SHIFT unused
ADC_CLM1_MASK 0000007F

Symbol: ADC_CLM1_MASK
   Definitions
      At line 235 in file MKL46Z4.s
   Uses
      None
Comment: ADC_CLM1_MASK unused
ADC_CLM1_OFFSET 00000068

Symbol: ADC_CLM1_OFFSET
   Definitions
      At line 124 in file MKL46Z4.s
   Uses
      At line 131 in file MKL46Z4.s
Comment: ADC_CLM1_OFFSET used once
ADC_CLM1_SHIFT 00000000

Symbol: ADC_CLM1_SHIFT
   Definitions
      At line 236 in file MKL46Z4.s
   Uses
      None
Comment: ADC_CLM1_SHIFT unused
ADC_CLM2_MASK 000000FF

Symbol: ADC_CLM2_MASK
   Definitions
      At line 241 in file MKL46Z4.s
   Uses
      None
Comment: ADC_CLM2_MASK unused
ADC_CLM2_OFFSET 00000064

Symbol: ADC_CLM2_OFFSET
   Definitions
      At line 123 in file MKL46Z4.s
   Uses
      At line 132 in file MKL46Z4.s
Comment: ADC_CLM2_OFFSET used once
ADC_CLM2_SHIFT 00000000




ARM Macro Assembler    Page 13 Alphabetic symbol ordering
Absolute symbols

Symbol: ADC_CLM2_SHIFT
   Definitions
      At line 242 in file MKL46Z4.s
   Uses
      None
Comment: ADC_CLM2_SHIFT unused
ADC_CLM3_MASK 000001FF

Symbol: ADC_CLM3_MASK
   Definitions
      At line 247 in file MKL46Z4.s
   Uses
      None
Comment: ADC_CLM3_MASK unused
ADC_CLM3_OFFSET 00000060

Symbol: ADC_CLM3_OFFSET
   Definitions
      At line 122 in file MKL46Z4.s
   Uses
      At line 133 in file MKL46Z4.s
Comment: ADC_CLM3_OFFSET used once
ADC_CLM3_SHIFT 00000000

Symbol: ADC_CLM3_SHIFT
   Definitions
      At line 248 in file MKL46Z4.s
   Uses
      None
Comment: ADC_CLM3_SHIFT unused
ADC_CLM4_MASK 000003FF

Symbol: ADC_CLM4_MASK
   Definitions
      At line 253 in file MKL46Z4.s
   Uses
      None
Comment: ADC_CLM4_MASK unused
ADC_CLM4_OFFSET 0000005C

Symbol: ADC_CLM4_OFFSET
   Definitions
      At line 121 in file MKL46Z4.s
   Uses
      At line 134 in file MKL46Z4.s
Comment: ADC_CLM4_OFFSET used once
ADC_CLM4_SHIFT 00000000

Symbol: ADC_CLM4_SHIFT
   Definitions
      At line 254 in file MKL46Z4.s
   Uses
      None
Comment: ADC_CLM4_SHIFT unused
ADC_CLMD_MASK 0000003F

Symbol: ADC_CLMD_MASK
   Definitions
      At line 217 in file MKL46Z4.s



ARM Macro Assembler    Page 14 Alphabetic symbol ordering
Absolute symbols

   Uses
      None
Comment: ADC_CLMD_MASK unused
ADC_CLMD_OFFSET 00000054

Symbol: ADC_CLMD_OFFSET
   Definitions
      At line 119 in file MKL46Z4.s
   Uses
      At line 128 in file MKL46Z4.s
Comment: ADC_CLMD_OFFSET used once
ADC_CLMD_SHIFT 00000000

Symbol: ADC_CLMD_SHIFT
   Definitions
      At line 218 in file MKL46Z4.s
   Uses
      None
Comment: ADC_CLMD_SHIFT unused
ADC_CLMS_MASK 0000003F

Symbol: ADC_CLMS_MASK
   Definitions
      At line 223 in file MKL46Z4.s
   Uses
      None
Comment: ADC_CLMS_MASK unused
ADC_CLMS_OFFSET 00000058

Symbol: ADC_CLMS_OFFSET
   Definitions
      At line 120 in file MKL46Z4.s
   Uses
      At line 129 in file MKL46Z4.s
Comment: ADC_CLMS_OFFSET used once
ADC_CLMS_SHIFT 00000000

Symbol: ADC_CLMS_SHIFT
   Definitions
      At line 224 in file MKL46Z4.s
   Uses
      None
Comment: ADC_CLMS_SHIFT unused
ADC_CLP0_MASK 0000003F

Symbol: ADC_CLP0_MASK
   Definitions
      At line 271 in file MKL46Z4.s
   Uses
      None
Comment: ADC_CLP0_MASK unused
ADC_CLP0_OFFSET 0000004C

Symbol: ADC_CLP0_OFFSET
   Definitions
      At line 118 in file MKL46Z4.s
   Uses
      At line 137 in file MKL46Z4.s
Comment: ADC_CLP0_OFFSET used once



ARM Macro Assembler    Page 15 Alphabetic symbol ordering
Absolute symbols

ADC_CLP0_SHIFT 00000000

Symbol: ADC_CLP0_SHIFT
   Definitions
      At line 272 in file MKL46Z4.s
   Uses
      None
Comment: ADC_CLP0_SHIFT unused
ADC_CLP1_MASK 0000007F

Symbol: ADC_CLP1_MASK
   Definitions
      At line 277 in file MKL46Z4.s
   Uses
      None
Comment: ADC_CLP1_MASK unused
ADC_CLP1_OFFSET 00000048

Symbol: ADC_CLP1_OFFSET
   Definitions
      At line 117 in file MKL46Z4.s
   Uses
      At line 138 in file MKL46Z4.s
Comment: ADC_CLP1_OFFSET used once
ADC_CLP1_SHIFT 00000000

Symbol: ADC_CLP1_SHIFT
   Definitions
      At line 278 in file MKL46Z4.s
   Uses
      None
Comment: ADC_CLP1_SHIFT unused
ADC_CLP2_MASK 000000FF

Symbol: ADC_CLP2_MASK
   Definitions
      At line 283 in file MKL46Z4.s
   Uses
      None
Comment: ADC_CLP2_MASK unused
ADC_CLP2_OFFSET 00000044

Symbol: ADC_CLP2_OFFSET
   Definitions
      At line 116 in file MKL46Z4.s
   Uses
      At line 139 in file MKL46Z4.s
Comment: ADC_CLP2_OFFSET used once
ADC_CLP2_SHIFT 00000000

Symbol: ADC_CLP2_SHIFT
   Definitions
      At line 284 in file MKL46Z4.s
   Uses
      None
Comment: ADC_CLP2_SHIFT unused
ADC_CLP3_MASK 000001FF

Symbol: ADC_CLP3_MASK



ARM Macro Assembler    Page 16 Alphabetic symbol ordering
Absolute symbols

   Definitions
      At line 289 in file MKL46Z4.s
   Uses
      None
Comment: ADC_CLP3_MASK unused
ADC_CLP3_OFFSET 00000040

Symbol: ADC_CLP3_OFFSET
   Definitions
      At line 115 in file MKL46Z4.s
   Uses
      At line 140 in file MKL46Z4.s
Comment: ADC_CLP3_OFFSET used once
ADC_CLP3_SHIFT 00000000

Symbol: ADC_CLP3_SHIFT
   Definitions
      At line 290 in file MKL46Z4.s
   Uses
      None
Comment: ADC_CLP3_SHIFT unused
ADC_CLP4_MASK 000003FF

Symbol: ADC_CLP4_MASK
   Definitions
      At line 295 in file MKL46Z4.s
   Uses
      None
Comment: ADC_CLP4_MASK unused
ADC_CLP4_OFFSET 0000003C

Symbol: ADC_CLP4_OFFSET
   Definitions
      At line 114 in file MKL46Z4.s
   Uses
      At line 141 in file MKL46Z4.s
Comment: ADC_CLP4_OFFSET used once
ADC_CLP4_SHIFT 00000000

Symbol: ADC_CLP4_SHIFT
   Definitions
      At line 296 in file MKL46Z4.s
   Uses
      None
Comment: ADC_CLP4_SHIFT unused
ADC_CLPD_MASK 0000003F

Symbol: ADC_CLPD_MASK
   Definitions
      At line 259 in file MKL46Z4.s
   Uses
      None
Comment: ADC_CLPD_MASK unused
ADC_CLPD_OFFSET 00000034

Symbol: ADC_CLPD_OFFSET
   Definitions
      At line 112 in file MKL46Z4.s
   Uses



ARM Macro Assembler    Page 17 Alphabetic symbol ordering
Absolute symbols

      At line 135 in file MKL46Z4.s
Comment: ADC_CLPD_OFFSET used once
ADC_CLPD_SHIFT 00000000

Symbol: ADC_CLPD_SHIFT
   Definitions
      At line 260 in file MKL46Z4.s
   Uses
      None
Comment: ADC_CLPD_SHIFT unused
ADC_CLPS_MASK 0000003F

Symbol: ADC_CLPS_MASK
   Definitions
      At line 265 in file MKL46Z4.s
   Uses
      None
Comment: ADC_CLPS_MASK unused
ADC_CLPS_OFFSET 00000038

Symbol: ADC_CLPS_OFFSET
   Definitions
      At line 113 in file MKL46Z4.s
   Uses
      At line 136 in file MKL46Z4.s
Comment: ADC_CLPS_OFFSET used once
ADC_CLPS_SHIFT 00000000

Symbol: ADC_CLPS_SHIFT
   Definitions
      At line 266 in file MKL46Z4.s
   Uses
      None
Comment: ADC_CLPS_SHIFT unused
ADC_COCO_MASK 00000080

Symbol: ADC_COCO_MASK
   Definitions
      At line 372 in file MKL46Z4.s
   Uses
      None
Comment: ADC_COCO_MASK unused
ADC_COCO_SHIFT 00000007

Symbol: ADC_COCO_SHIFT
   Definitions
      At line 373 in file MKL46Z4.s
   Uses
      None
Comment: ADC_COCO_SHIFT unused
ADC_CV1_OFFSET 00000018

Symbol: ADC_CV1_OFFSET
   Definitions
      At line 105 in file MKL46Z4.s
   Uses
      At line 142 in file MKL46Z4.s
Comment: ADC_CV1_OFFSET used once
ADC_CV2_OFFSET 0000001C



ARM Macro Assembler    Page 18 Alphabetic symbol ordering
Absolute symbols


Symbol: ADC_CV2_OFFSET
   Definitions
      At line 106 in file MKL46Z4.s
   Uses
      At line 143 in file MKL46Z4.s
Comment: ADC_CV2_OFFSET used once
ADC_CV_MASK 0000FFFF

Symbol: ADC_CV_MASK
   Definitions
      At line 303 in file MKL46Z4.s
   Uses
      None
Comment: ADC_CV_MASK unused
ADC_CV_SHIFT 00000000

Symbol: ADC_CV_SHIFT
   Definitions
      At line 304 in file MKL46Z4.s
   Uses
      None
Comment: ADC_CV_SHIFT unused
ADC_DIFF_MASK 00000020

Symbol: ADC_DIFF_MASK
   Definitions
      At line 376 in file MKL46Z4.s
   Uses
      None
Comment: ADC_DIFF_MASK unused
ADC_DIFF_SHIFT 00000005

Symbol: ADC_DIFF_SHIFT
   Definitions
      At line 377 in file MKL46Z4.s
   Uses
      None
Comment: ADC_DIFF_SHIFT unused
ADC_DMAEN_MASK 00000004

Symbol: ADC_DMAEN_MASK
   Definitions
      At line 411 in file MKL46Z4.s
   Uses
      None
Comment: ADC_DMAEN_MASK unused
ADC_DMAEN_SHIFT 00000002

Symbol: ADC_DMAEN_SHIFT
   Definitions
      At line 412 in file MKL46Z4.s
   Uses
      None
Comment: ADC_DMAEN_SHIFT unused
ADC_D_MASK 0000FFFF

Symbol: ADC_D_MASK
   Definitions



ARM Macro Assembler    Page 19 Alphabetic symbol ordering
Absolute symbols

      At line 327 in file MKL46Z4.s
   Uses
      None
Comment: ADC_D_MASK unused
ADC_D_SHIFT 00000000

Symbol: ADC_D_SHIFT
   Definitions
      At line 328 in file MKL46Z4.s
   Uses
      None
Comment: ADC_D_SHIFT unused
ADC_MG_MASK 0000FFFF

Symbol: ADC_MG_MASK
   Definitions
      At line 309 in file MKL46Z4.s
   Uses
      None
Comment: ADC_MG_MASK unused
ADC_MG_OFFSET 00000030

Symbol: ADC_MG_OFFSET
   Definitions
      At line 111 in file MKL46Z4.s
   Uses
      At line 144 in file MKL46Z4.s
Comment: ADC_MG_OFFSET used once
ADC_MG_SHIFT 00000000

Symbol: ADC_MG_SHIFT
   Definitions
      At line 310 in file MKL46Z4.s
   Uses
      None
Comment: ADC_MG_SHIFT unused
ADC_OFS_MASK 0000FFFF

Symbol: ADC_OFS_MASK
   Definitions
      At line 315 in file MKL46Z4.s
   Uses
      None
Comment: ADC_OFS_MASK unused
ADC_OFS_OFFSET 00000028

Symbol: ADC_OFS_OFFSET
   Definitions
      At line 109 in file MKL46Z4.s
   Uses
      At line 145 in file MKL46Z4.s
Comment: ADC_OFS_OFFSET used once
ADC_OFS_SHIFT 00000000

Symbol: ADC_OFS_SHIFT
   Definitions
      At line 316 in file MKL46Z4.s
   Uses
      None



ARM Macro Assembler    Page 20 Alphabetic symbol ordering
Absolute symbols

Comment: ADC_OFS_SHIFT unused
ADC_PG_MASK 0000FFFF

Symbol: ADC_PG_MASK
   Definitions
      At line 321 in file MKL46Z4.s
   Uses
      None
Comment: ADC_PG_MASK unused
ADC_PG_OFFSET 0000002C

Symbol: ADC_PG_OFFSET
   Definitions
      At line 110 in file MKL46Z4.s
   Uses
      At line 146 in file MKL46Z4.s
Comment: ADC_PG_OFFSET used once
ADC_PG_SHIFT 00000000

Symbol: ADC_PG_SHIFT
   Definitions
      At line 322 in file MKL46Z4.s
   Uses
      None
Comment: ADC_PG_SHIFT unused
ADC_RA_OFFSET 00000010

Symbol: ADC_RA_OFFSET
   Definitions
      At line 103 in file MKL46Z4.s
   Uses
      At line 147 in file MKL46Z4.s
Comment: ADC_RA_OFFSET used once
ADC_RB_OFFSET 00000014

Symbol: ADC_RB_OFFSET
   Definitions
      At line 104 in file MKL46Z4.s
   Uses
      At line 148 in file MKL46Z4.s
Comment: ADC_RB_OFFSET used once
ADC_REFSEL_MASK 00000003

Symbol: ADC_REFSEL_MASK
   Definitions
      At line 413 in file MKL46Z4.s
   Uses
      None
Comment: ADC_REFSEL_MASK unused
ADC_REFSEL_SHIFT 00000000

Symbol: ADC_REFSEL_SHIFT
   Definitions
      At line 414 in file MKL46Z4.s
   Uses
      None
Comment: ADC_REFSEL_SHIFT unused
ADC_SC1A_OFFSET 00000000




ARM Macro Assembler    Page 21 Alphabetic symbol ordering
Absolute symbols

Symbol: ADC_SC1A_OFFSET
   Definitions
      At line 99 in file MKL46Z4.s
   Uses
      At line 149 in file MKL46Z4.s
Comment: ADC_SC1A_OFFSET used once
ADC_SC1B_OFFSET 00000004

Symbol: ADC_SC1B_OFFSET
   Definitions
      At line 100 in file MKL46Z4.s
   Uses
      At line 150 in file MKL46Z4.s
Comment: ADC_SC1B_OFFSET used once
ADC_SC2_OFFSET 00000020

Symbol: ADC_SC2_OFFSET
   Definitions
      At line 107 in file MKL46Z4.s
   Uses
      At line 151 in file MKL46Z4.s
Comment: ADC_SC2_OFFSET used once
ADC_SC3_OFFSET 00000024

Symbol: ADC_SC3_OFFSET
   Definitions
      At line 108 in file MKL46Z4.s
   Uses
      At line 152 in file MKL46Z4.s
Comment: ADC_SC3_OFFSET used once
APSR_C_MASK 20000000

Symbol: APSR_C_MASK
   Definitions
      At line 49 in file MKL46Z4.s
   Uses
      At line 88 in file MKL46Z4.s
Comment: APSR_C_MASK used once
APSR_C_SHIFT 0000001D

Symbol: APSR_C_SHIFT
   Definitions
      At line 50 in file MKL46Z4.s
   Uses
      At line 89 in file MKL46Z4.s
Comment: APSR_C_SHIFT used once
APSR_MASK F0000000

Symbol: APSR_MASK
   Definitions
      At line 43 in file MKL46Z4.s
   Uses
      None
Comment: APSR_MASK unused
APSR_N_MASK 80000000

Symbol: APSR_N_MASK
   Definitions
      At line 45 in file MKL46Z4.s



ARM Macro Assembler    Page 22 Alphabetic symbol ordering
Absolute symbols

   Uses
      At line 84 in file MKL46Z4.s
Comment: APSR_N_MASK used once
APSR_N_SHIFT 0000001F

Symbol: APSR_N_SHIFT
   Definitions
      At line 46 in file MKL46Z4.s
   Uses
      At line 85 in file MKL46Z4.s
Comment: APSR_N_SHIFT used once
APSR_SHIFT 0000001C

Symbol: APSR_SHIFT
   Definitions
      At line 44 in file MKL46Z4.s
   Uses
      None
Comment: APSR_SHIFT unused
APSR_V_MASK 10000000

Symbol: APSR_V_MASK
   Definitions
      At line 51 in file MKL46Z4.s
   Uses
      At line 90 in file MKL46Z4.s
Comment: APSR_V_MASK used once
APSR_V_SHIFT 0000001C

Symbol: APSR_V_SHIFT
   Definitions
      At line 52 in file MKL46Z4.s
   Uses
      At line 91 in file MKL46Z4.s
Comment: APSR_V_SHIFT used once
APSR_Z_MASK 40000000

Symbol: APSR_Z_MASK
   Definitions
      At line 47 in file MKL46Z4.s
   Uses
      At line 86 in file MKL46Z4.s
Comment: APSR_Z_MASK used once
APSR_Z_SHIFT 0000001E

Symbol: APSR_Z_SHIFT
   Definitions
      At line 48 in file MKL46Z4.s
   Uses
      At line 87 in file MKL46Z4.s
Comment: APSR_Z_SHIFT used once
BUF_PAST 0000000C

Symbol: BUF_PAST
   Definitions
      At line 25 in file Exercise13.s
   Uses
      At line 426 in file Exercise13.s
      At line 438 in file Exercise13.s



ARM Macro Assembler    Page 23 Alphabetic symbol ordering
Absolute symbols

      At line 450 in file Exercise13.s
      At line 597 in file Exercise13.s
      At line 638 in file Exercise13.s

BUF_SIZE 00000010

Symbol: BUF_SIZE
   Definitions
      At line 26 in file Exercise13.s
   Uses
      At line 427 in file Exercise13.s
      At line 439 in file Exercise13.s
      At line 451 in file Exercise13.s
      At line 628 in file Exercise13.s

BUF_STRT 00000008

Symbol: BUF_STRT
   Definitions
      At line 24 in file Exercise13.s
   Uses
      At line 423 in file Exercise13.s
      At line 435 in file Exercise13.s
      At line 447 in file Exercise13.s
      At line 606 in file Exercise13.s
      At line 647 in file Exercise13.s

CMP0_IPR E000E410

Symbol: CMP0_IPR
   Definitions
      At line 997 in file MKL46Z4.s
   Uses
      None
Comment: CMP0_IPR unused
CMP0_IRQ 00000010

Symbol: CMP0_IRQ
   Definitions
      At line 1067 in file MKL46Z4.s
   Uses
      At line 1101 in file MKL46Z4.s
Comment: CMP0_IRQ used once
CMP0_IRQ_MASK 00010000

Symbol: CMP0_IRQ_MASK
   Definitions
      At line 1101 in file MKL46Z4.s
   Uses
      None
Comment: CMP0_IRQ_MASK unused
CMP0_PRI_POS 00000006

Symbol: CMP0_PRI_POS
   Definitions
      At line 1033 in file MKL46Z4.s
   Uses
      None
Comment: CMP0_PRI_POS unused



ARM Macro Assembler    Page 24 Alphabetic symbol ordering
Absolute symbols

CMP0_Vector 00000020

Symbol: CMP0_Vector
   Definitions
      At line 1151 in file MKL46Z4.s
   Uses
      None
Comment: CMP0_Vector unused
COP_COPCLKS_MASK 00000002

Symbol: COP_COPCLKS_MASK
   Definitions
      At line 1751 in file MKL46Z4.s
   Uses
      None
Comment: COP_COPCLKS_MASK unused
COP_COPCLKS_SHIFT 00000001

Symbol: COP_COPCLKS_SHIFT
   Definitions
      At line 1752 in file MKL46Z4.s
   Uses
      None
Comment: COP_COPCLKS_SHIFT unused
COP_COPT_MASK 0000000C

Symbol: COP_COPT_MASK
   Definitions
      At line 1749 in file MKL46Z4.s
   Uses
      None
Comment: COP_COPT_MASK unused
COP_COPT_SHIFT 00000002

Symbol: COP_COPT_SHIFT
   Definitions
      At line 1750 in file MKL46Z4.s
   Uses
      None
Comment: COP_COPT_SHIFT unused
COP_COPW_MASK 00000001

Symbol: COP_COPW_MASK
   Definitions
      At line 1753 in file MKL46Z4.s
   Uses
      None
Comment: COP_COPW_MASK unused
COP_COPW_SHIFT 00000001

Symbol: COP_COPW_SHIFT
   Definitions
      At line 1754 in file MKL46Z4.s
   Uses
      None
Comment: COP_COPW_SHIFT unused
COP_DISABLE 00000000

Symbol: COP_DISABLE



ARM Macro Assembler    Page 25 Alphabetic symbol ordering
Absolute symbols

   Definitions
      At line 1755 in file MKL46Z4.s
   Uses
      None
Comment: COP_DISABLE unused
CR 0000000D

Symbol: CR
   Definitions
      At line 33 in file Exercise13.s
   Uses
      At line 317 in file Exercise13.s
Comment: CR used once
DAC0_BASE 4003F000

Symbol: DAC0_BASE
   Definitions
      At line 440 in file MKL46Z4.s
   Uses
      At line 449 in file MKL46Z4.s
      At line 450 in file MKL46Z4.s
      At line 451 in file MKL46Z4.s
      At line 452 in file MKL46Z4.s
      At line 453 in file MKL46Z4.s
      At line 454 in file MKL46Z4.s
      At line 455 in file MKL46Z4.s
      At line 456 in file MKL46Z4.s

DAC0_C0 4003F021

Symbol: DAC0_C0
   Definitions
      At line 454 in file MKL46Z4.s
   Uses
      None
Comment: DAC0_C0 unused
DAC0_C0_OFFSET 00000021

Symbol: DAC0_C0_OFFSET
   Definitions
      At line 446 in file MKL46Z4.s
   Uses
      At line 454 in file MKL46Z4.s
Comment: DAC0_C0_OFFSET used once
DAC0_C1 4003F022

Symbol: DAC0_C1
   Definitions
      At line 455 in file MKL46Z4.s
   Uses
      None
Comment: DAC0_C1 unused
DAC0_C1_OFFSET 00000022

Symbol: DAC0_C1_OFFSET
   Definitions
      At line 447 in file MKL46Z4.s
   Uses
      At line 455 in file MKL46Z4.s



ARM Macro Assembler    Page 26 Alphabetic symbol ordering
Absolute symbols

Comment: DAC0_C1_OFFSET used once
DAC0_C2 4003F023

Symbol: DAC0_C2
   Definitions
      At line 456 in file MKL46Z4.s
   Uses
      None
Comment: DAC0_C2 unused
DAC0_C2_DACBFRP_MASK 00000010

Symbol: DAC0_C2_DACBFRP_MASK
   Definitions
      At line 534 in file MKL46Z4.s
   Uses
      None
Comment: DAC0_C2_DACBFRP_MASK unused
DAC0_C2_DACBFRP_SHIFT 00000004

Symbol: DAC0_C2_DACBFRP_SHIFT
   Definitions
      At line 535 in file MKL46Z4.s
   Uses
      None
Comment: DAC0_C2_DACBFRP_SHIFT unused
DAC0_C2_DACBFUP_MASK 00000001

Symbol: DAC0_C2_DACBFUP_MASK
   Definitions
      At line 536 in file MKL46Z4.s
   Uses
      None
Comment: DAC0_C2_DACBFUP_MASK unused
DAC0_C2_DACBFUP_SHIFT 00000000

Symbol: DAC0_C2_DACBFUP_SHIFT
   Definitions
      At line 537 in file MKL46Z4.s
   Uses
      None
Comment: DAC0_C2_DACBFUP_SHIFT unused
DAC0_C2_OFFSET 00000023

Symbol: DAC0_C2_OFFSET
   Definitions
      At line 448 in file MKL46Z4.s
   Uses
      At line 456 in file MKL46Z4.s
Comment: DAC0_C2_OFFSET used once
DAC0_DAT0H 4003F001

Symbol: DAC0_DAT0H
   Definitions
      At line 450 in file MKL46Z4.s
   Uses
      None
Comment: DAC0_DAT0H unused
DAC0_DAT0H_OFFSET 00000001




ARM Macro Assembler    Page 27 Alphabetic symbol ordering
Absolute symbols

Symbol: DAC0_DAT0H_OFFSET
   Definitions
      At line 442 in file MKL46Z4.s
   Uses
      At line 450 in file MKL46Z4.s
Comment: DAC0_DAT0H_OFFSET used once
DAC0_DAT0L 4003F000

Symbol: DAC0_DAT0L
   Definitions
      At line 449 in file MKL46Z4.s
   Uses
      None
Comment: DAC0_DAT0L unused
DAC0_DAT0L_OFFSET 00000000

Symbol: DAC0_DAT0L_OFFSET
   Definitions
      At line 441 in file MKL46Z4.s
   Uses
      At line 449 in file MKL46Z4.s
Comment: DAC0_DAT0L_OFFSET used once
DAC0_DAT1H 4003F003

Symbol: DAC0_DAT1H
   Definitions
      At line 452 in file MKL46Z4.s
   Uses
      None
Comment: DAC0_DAT1H unused
DAC0_DAT1H_OFFSET 00000003

Symbol: DAC0_DAT1H_OFFSET
   Definitions
      At line 444 in file MKL46Z4.s
   Uses
      At line 452 in file MKL46Z4.s
Comment: DAC0_DAT1H_OFFSET used once
DAC0_DAT1L 4003F002

Symbol: DAC0_DAT1L
   Definitions
      At line 451 in file MKL46Z4.s
   Uses
      None
Comment: DAC0_DAT1L unused
DAC0_DAT1L_OFFSET 00000002

Symbol: DAC0_DAT1L_OFFSET
   Definitions
      At line 443 in file MKL46Z4.s
   Uses
      At line 451 in file MKL46Z4.s
Comment: DAC0_DAT1L_OFFSET used once
DAC0_IPR E000E418

Symbol: DAC0_IPR
   Definitions
      At line 1006 in file MKL46Z4.s



ARM Macro Assembler    Page 28 Alphabetic symbol ordering
Absolute symbols

   Uses
      None
Comment: DAC0_IPR unused
DAC0_IRQ 00000019

Symbol: DAC0_IRQ
   Definitions
      At line 1076 in file MKL46Z4.s
   Uses
      At line 1110 in file MKL46Z4.s
Comment: DAC0_IRQ used once
DAC0_IRQ_MASK 02000000

Symbol: DAC0_IRQ_MASK
   Definitions
      At line 1110 in file MKL46Z4.s
   Uses
      None
Comment: DAC0_IRQ_MASK unused
DAC0_PRI_POS 0000000E

Symbol: DAC0_PRI_POS
   Definitions
      At line 1042 in file MKL46Z4.s
   Uses
      None
Comment: DAC0_PRI_POS unused
DAC0_SR 4003F020

Symbol: DAC0_SR
   Definitions
      At line 453 in file MKL46Z4.s
   Uses
      None
Comment: DAC0_SR unused
DAC0_SR_OFFSET 00000020

Symbol: DAC0_SR_OFFSET
   Definitions
      At line 445 in file MKL46Z4.s
   Uses
      At line 453 in file MKL46Z4.s
Comment: DAC0_SR_OFFSET used once
DAC0_Vector 00000029

Symbol: DAC0_Vector
   Definitions
      At line 1160 in file MKL46Z4.s
   Uses
      None
Comment: DAC0_Vector unused
DAC_C0_DACBBIEN_MASK 00000001

Symbol: DAC_C0_DACBBIEN_MASK
   Definitions
      At line 509 in file MKL46Z4.s
   Uses
      None
Comment: DAC_C0_DACBBIEN_MASK unused



ARM Macro Assembler    Page 29 Alphabetic symbol ordering
Absolute symbols

DAC_C0_DACBBIEN_SHIFT 00000000

Symbol: DAC_C0_DACBBIEN_SHIFT
   Definitions
      At line 510 in file MKL46Z4.s
   Uses
      None
Comment: DAC_C0_DACBBIEN_SHIFT unused
DAC_C0_DACBTIEN_MASK 00000002

Symbol: DAC_C0_DACBTIEN_MASK
   Definitions
      At line 507 in file MKL46Z4.s
   Uses
      None
Comment: DAC_C0_DACBTIEN_MASK unused
DAC_C0_DACBTIEN_SHIFT 00000001

Symbol: DAC_C0_DACBTIEN_SHIFT
   Definitions
      At line 508 in file MKL46Z4.s
   Uses
      None
Comment: DAC_C0_DACBTIEN_SHIFT unused
DAC_C0_DACEN_MASK 00000080

Symbol: DAC_C0_DACEN_MASK
   Definitions
      At line 497 in file MKL46Z4.s
   Uses
      None
Comment: DAC_C0_DACEN_MASK unused
DAC_C0_DACEN_SHIFT 00000007

Symbol: DAC_C0_DACEN_SHIFT
   Definitions
      At line 498 in file MKL46Z4.s
   Uses
      None
Comment: DAC_C0_DACEN_SHIFT unused
DAC_C0_DACRFS_MASK 00000040

Symbol: DAC_C0_DACRFS_MASK
   Definitions
      At line 499 in file MKL46Z4.s
   Uses
      None
Comment: DAC_C0_DACRFS_MASK unused
DAC_C0_DACRFS_SHIFT 00000006

Symbol: DAC_C0_DACRFS_SHIFT
   Definitions
      At line 500 in file MKL46Z4.s
   Uses
      None
Comment: DAC_C0_DACRFS_SHIFT unused
DAC_C0_DACSWTRG_MASK 00000010

Symbol: DAC_C0_DACSWTRG_MASK



ARM Macro Assembler    Page 30 Alphabetic symbol ordering
Absolute symbols

   Definitions
      At line 503 in file MKL46Z4.s
   Uses
      None
Comment: DAC_C0_DACSWTRG_MASK unused
DAC_C0_DACSWTRG_SHIFT 00000004

Symbol: DAC_C0_DACSWTRG_SHIFT
   Definitions
      At line 504 in file MKL46Z4.s
   Uses
      None
Comment: DAC_C0_DACSWTRG_SHIFT unused
DAC_C0_DACTRGSEL_MASK 00000020

Symbol: DAC_C0_DACTRGSEL_MASK
   Definitions
      At line 501 in file MKL46Z4.s
   Uses
      None
Comment: DAC_C0_DACTRGSEL_MASK unused
DAC_C0_DACTRGSEL_SHIFT 00000005

Symbol: DAC_C0_DACTRGSEL_SHIFT
   Definitions
      At line 502 in file MKL46Z4.s
   Uses
      None
Comment: DAC_C0_DACTRGSEL_SHIFT unused
DAC_C0_LPEN_MASK 00000008

Symbol: DAC_C0_LPEN_MASK
   Definitions
      At line 505 in file MKL46Z4.s
   Uses
      None
Comment: DAC_C0_LPEN_MASK unused
DAC_C0_LPEN_SHIFT 00000003

Symbol: DAC_C0_LPEN_SHIFT
   Definitions
      At line 506 in file MKL46Z4.s
   Uses
      None
Comment: DAC_C0_LPEN_SHIFT unused
DAC_C1_DACBFEN_MASK 00000001

Symbol: DAC_C1_DACBFEN_MASK
   Definitions
      At line 526 in file MKL46Z4.s
   Uses
      None
Comment: DAC_C1_DACBFEN_MASK unused
DAC_C1_DACBFEN_SHIFT 00000000

Symbol: DAC_C1_DACBFEN_SHIFT
   Definitions
      At line 527 in file MKL46Z4.s
   Uses



ARM Macro Assembler    Page 31 Alphabetic symbol ordering
Absolute symbols

      None
Comment: DAC_C1_DACBFEN_SHIFT unused
DAC_C1_DACBFMD_MASK 00000004

Symbol: DAC_C1_DACBFMD_MASK
   Definitions
      At line 524 in file MKL46Z4.s
   Uses
      None
Comment: DAC_C1_DACBFMD_MASK unused
DAC_C1_DACBFMD_SHIFT 00000002

Symbol: DAC_C1_DACBFMD_SHIFT
   Definitions
      At line 525 in file MKL46Z4.s
   Uses
      None
Comment: DAC_C1_DACBFMD_SHIFT unused
DAC_C1_DMAEN_MASK 00000080

Symbol: DAC_C1_DMAEN_MASK
   Definitions
      At line 522 in file MKL46Z4.s
   Uses
      None
Comment: DAC_C1_DMAEN_MASK unused
DAC_C1_DMAEN_SHIFT 00000007

Symbol: DAC_C1_DMAEN_SHIFT
   Definitions
      At line 523 in file MKL46Z4.s
   Uses
      None
Comment: DAC_C1_DMAEN_SHIFT unused
DAC_DAT0H_MASK 0000000F

Symbol: DAC_DAT0H_MASK
   Definitions
      At line 462 in file MKL46Z4.s
   Uses
      None
Comment: DAC_DAT0H_MASK unused
DAC_DAT0H_SHIFT 00000000

Symbol: DAC_DAT0H_SHIFT
   Definitions
      At line 463 in file MKL46Z4.s
   Uses
      None
Comment: DAC_DAT0H_SHIFT unused
DAC_DAT1H_MASK 0000000F

Symbol: DAC_DAT1H_MASK
   Definitions
      At line 473 in file MKL46Z4.s
   Uses
      None
Comment: DAC_DAT1H_MASK unused
DAC_DAT1H_SHIFT 00000000



ARM Macro Assembler    Page 32 Alphabetic symbol ordering
Absolute symbols


Symbol: DAC_DAT1H_SHIFT
   Definitions
      At line 474 in file MKL46Z4.s
   Uses
      None
Comment: DAC_DAT1H_SHIFT unused
DAC_SR_DACBFRPBF_MASK 00000001

Symbol: DAC_SR_DACBFRPBF_MASK
   Definitions
      At line 548 in file MKL46Z4.s
   Uses
      None
Comment: DAC_SR_DACBFRPBF_MASK unused
DAC_SR_DACBFRPBF_SHIFT 00000000

Symbol: DAC_SR_DACBFRPBF_SHIFT
   Definitions
      At line 549 in file MKL46Z4.s
   Uses
      None
Comment: DAC_SR_DACBFRPBF_SHIFT unused
DAC_SR_DACBFRPTF_MASK 00000002

Symbol: DAC_SR_DACBFRPTF_MASK
   Definitions
      At line 546 in file MKL46Z4.s
   Uses
      None
Comment: DAC_SR_DACBFRPTF_MASK unused
DAC_SR_DACBFRPTF_SHIFT 00000001

Symbol: DAC_SR_DACBFRPTF_SHIFT
   Definitions
      At line 547 in file MKL46Z4.s
   Uses
      None
Comment: DAC_SR_DACBFRPTF_SHIFT unused
DMA0_IPR E000E400

Symbol: DMA0_IPR
   Definitions
      At line 981 in file MKL46Z4.s
   Uses
      None
Comment: DMA0_IPR unused
DMA0_IRQ 00000000

Symbol: DMA0_IRQ
   Definitions
      At line 1051 in file MKL46Z4.s
   Uses
      At line 1085 in file MKL46Z4.s
Comment: DMA0_IRQ used once
DMA0_IRQ_MASK 00000001

Symbol: DMA0_IRQ_MASK
   Definitions



ARM Macro Assembler    Page 33 Alphabetic symbol ordering
Absolute symbols

      At line 1085 in file MKL46Z4.s
   Uses
      None
Comment: DMA0_IRQ_MASK unused
DMA0_PRI_POS 00000006

Symbol: DMA0_PRI_POS
   Definitions
      At line 1017 in file MKL46Z4.s
   Uses
      None
Comment: DMA0_PRI_POS unused
DMA0_Vector 00000010

Symbol: DMA0_Vector
   Definitions
      At line 1135 in file MKL46Z4.s
   Uses
      None
Comment: DMA0_Vector unused
DMA1_IPR E000E400

Symbol: DMA1_IPR
   Definitions
      At line 982 in file MKL46Z4.s
   Uses
      None
Comment: DMA1_IPR unused
DMA1_IRQ 00000001

Symbol: DMA1_IRQ
   Definitions
      At line 1052 in file MKL46Z4.s
   Uses
      At line 1086 in file MKL46Z4.s
Comment: DMA1_IRQ used once
DMA1_IRQ_MASK 00000002

Symbol: DMA1_IRQ_MASK
   Definitions
      At line 1086 in file MKL46Z4.s
   Uses
      None
Comment: DMA1_IRQ_MASK unused
DMA1_PRI_POS 0000000E

Symbol: DMA1_PRI_POS
   Definitions
      At line 1018 in file MKL46Z4.s
   Uses
      None
Comment: DMA1_PRI_POS unused
DMA1_Vector 00000011

Symbol: DMA1_Vector
   Definitions
      At line 1136 in file MKL46Z4.s
   Uses
      None



ARM Macro Assembler    Page 34 Alphabetic symbol ordering
Absolute symbols

Comment: DMA1_Vector unused
DMA2_IPR E000E400

Symbol: DMA2_IPR
   Definitions
      At line 983 in file MKL46Z4.s
   Uses
      None
Comment: DMA2_IPR unused
DMA2_IRQ 00000002

Symbol: DMA2_IRQ
   Definitions
      At line 1053 in file MKL46Z4.s
   Uses
      At line 1087 in file MKL46Z4.s
Comment: DMA2_IRQ used once
DMA2_IRQ_MASK 00000004

Symbol: DMA2_IRQ_MASK
   Definitions
      At line 1087 in file MKL46Z4.s
   Uses
      None
Comment: DMA2_IRQ_MASK unused
DMA2_PRI_POS 00000016

Symbol: DMA2_PRI_POS
   Definitions
      At line 1019 in file MKL46Z4.s
   Uses
      None
Comment: DMA2_PRI_POS unused
DMA2_Vector 00000012

Symbol: DMA2_Vector
   Definitions
      At line 1137 in file MKL46Z4.s
   Uses
      None
Comment: DMA2_Vector unused
DMA3_IPR E000E400

Symbol: DMA3_IPR
   Definitions
      At line 984 in file MKL46Z4.s
   Uses
      None
Comment: DMA3_IPR unused
DMA3_IRQ 00000003

Symbol: DMA3_IRQ
   Definitions
      At line 1054 in file MKL46Z4.s
   Uses
      At line 1088 in file MKL46Z4.s
Comment: DMA3_IRQ used once
DMA3_IRQ_MASK 00000008




ARM Macro Assembler    Page 35 Alphabetic symbol ordering
Absolute symbols

Symbol: DMA3_IRQ_MASK
   Definitions
      At line 1088 in file MKL46Z4.s
   Uses
      None
Comment: DMA3_IRQ_MASK unused
DMA3_PRI_POS 0000001E

Symbol: DMA3_PRI_POS
   Definitions
      At line 1020 in file MKL46Z4.s
   Uses
      None
Comment: DMA3_PRI_POS unused
DMA3_Vector 00000013

Symbol: DMA3_Vector
   Definitions
      At line 1138 in file MKL46Z4.s
   Uses
      None
Comment: DMA3_Vector unused
EPSR_MASK 01000000

Symbol: EPSR_MASK
   Definitions
      At line 58 in file MKL46Z4.s
   Uses
      None
Comment: EPSR_MASK unused
EPSR_SHIFT 00000018

Symbol: EPSR_SHIFT
   Definitions
      At line 59 in file MKL46Z4.s
   Uses
      None
Comment: EPSR_SHIFT unused
EPSR_T_MASK 01000000

Symbol: EPSR_T_MASK
   Definitions
      At line 60 in file MKL46Z4.s
   Uses
      At line 92 in file MKL46Z4.s
Comment: EPSR_T_MASK used once
EPSR_T_SHIFT 00000018

Symbol: EPSR_T_SHIFT
   Definitions
      At line 61 in file MKL46Z4.s
   Uses
      At line 93 in file MKL46Z4.s
Comment: EPSR_T_SHIFT used once
FCF_BACKDOOR_KEY0 000000FF

Symbol: FCF_BACKDOOR_KEY0
   Definitions
      At line 612 in file MKL46Z4.s



ARM Macro Assembler    Page 36 Alphabetic symbol ordering
Absolute symbols

   Uses
      None
Comment: FCF_BACKDOOR_KEY0 unused
FCF_BACKDOOR_KEY1 000000FF

Symbol: FCF_BACKDOOR_KEY1
   Definitions
      At line 616 in file MKL46Z4.s
   Uses
      None
Comment: FCF_BACKDOOR_KEY1 unused
FCF_BACKDOOR_KEY2 000000FF

Symbol: FCF_BACKDOOR_KEY2
   Definitions
      At line 620 in file MKL46Z4.s
   Uses
      None
Comment: FCF_BACKDOOR_KEY2 unused
FCF_BACKDOOR_KEY3 000000FF

Symbol: FCF_BACKDOOR_KEY3
   Definitions
      At line 624 in file MKL46Z4.s
   Uses
      None
Comment: FCF_BACKDOOR_KEY3 unused
FCF_BACKDOOR_KEY4 000000FF

Symbol: FCF_BACKDOOR_KEY4
   Definitions
      At line 628 in file MKL46Z4.s
   Uses
      None
Comment: FCF_BACKDOOR_KEY4 unused
FCF_BACKDOOR_KEY5 000000FF

Symbol: FCF_BACKDOOR_KEY5
   Definitions
      At line 632 in file MKL46Z4.s
   Uses
      None
Comment: FCF_BACKDOOR_KEY5 unused
FCF_BACKDOOR_KEY6 000000FF

Symbol: FCF_BACKDOOR_KEY6
   Definitions
      At line 636 in file MKL46Z4.s
   Uses
      None
Comment: FCF_BACKDOOR_KEY6 unused
FCF_BACKDOOR_KEY7 000000FF

Symbol: FCF_BACKDOOR_KEY7
   Definitions
      At line 640 in file MKL46Z4.s
   Uses
      None
Comment: FCF_BACKDOOR_KEY7 unused



ARM Macro Assembler    Page 37 Alphabetic symbol ordering
Absolute symbols

FCF_FOPT 000000FF

Symbol: FCF_FOPT
   Definitions
      At line 651 in file MKL46Z4.s
   Uses
      None
Comment: FCF_FOPT unused
FCF_FPROT0 000000FF

Symbol: FCF_FPROT0
   Definitions
      At line 666 in file MKL46Z4.s
   Uses
      None
Comment: FCF_FPROT0 unused
FCF_FPROT1 000000FF

Symbol: FCF_FPROT1
   Definitions
      At line 677 in file MKL46Z4.s
   Uses
      None
Comment: FCF_FPROT1 unused
FCF_FPROT2 000000FF

Symbol: FCF_FPROT2
   Definitions
      At line 688 in file MKL46Z4.s
   Uses
      None
Comment: FCF_FPROT2 unused
FCF_FPROT3 000000FF

Symbol: FCF_FPROT3
   Definitions
      At line 699 in file MKL46Z4.s
   Uses
      None
Comment: FCF_FPROT3 unused
FCF_FSEC 0000007E

Symbol: FCF_FSEC
   Definitions
      At line 728 in file MKL46Z4.s
   Uses
      None
Comment: FCF_FSEC unused
FGPIOA_BASE F80FF000

Symbol: FGPIOA_BASE
   Definitions
      At line 560 in file MKL46Z4.s
   Uses
      At line 561 in file MKL46Z4.s
      At line 562 in file MKL46Z4.s
      At line 563 in file MKL46Z4.s
      At line 564 in file MKL46Z4.s
      At line 565 in file MKL46Z4.s



ARM Macro Assembler    Page 38 Alphabetic symbol ordering
Absolute symbols

      At line 566 in file MKL46Z4.s

FGPIOA_PCOR F80FF008

Symbol: FGPIOA_PCOR
   Definitions
      At line 563 in file MKL46Z4.s
   Uses
      None
Comment: FGPIOA_PCOR unused
FGPIOA_PDDR F80FF014

Symbol: FGPIOA_PDDR
   Definitions
      At line 566 in file MKL46Z4.s
   Uses
      None
Comment: FGPIOA_PDDR unused
FGPIOA_PDIR F80FF010

Symbol: FGPIOA_PDIR
   Definitions
      At line 565 in file MKL46Z4.s
   Uses
      None
Comment: FGPIOA_PDIR unused
FGPIOA_PDOR F80FF000

Symbol: FGPIOA_PDOR
   Definitions
      At line 561 in file MKL46Z4.s
   Uses
      None
Comment: FGPIOA_PDOR unused
FGPIOA_PSOR F80FF004

Symbol: FGPIOA_PSOR
   Definitions
      At line 562 in file MKL46Z4.s
   Uses
      None
Comment: FGPIOA_PSOR unused
FGPIOA_PTOR F80FF00C

Symbol: FGPIOA_PTOR
   Definitions
      At line 564 in file MKL46Z4.s
   Uses
      None
Comment: FGPIOA_PTOR unused
FGPIOB_BASE F80FF040

Symbol: FGPIOB_BASE
   Definitions
      At line 568 in file MKL46Z4.s
   Uses
      At line 569 in file MKL46Z4.s
      At line 570 in file MKL46Z4.s
      At line 571 in file MKL46Z4.s



ARM Macro Assembler    Page 39 Alphabetic symbol ordering
Absolute symbols

      At line 572 in file MKL46Z4.s
      At line 573 in file MKL46Z4.s
      At line 574 in file MKL46Z4.s

FGPIOB_PCOR F80FF048

Symbol: FGPIOB_PCOR
   Definitions
      At line 571 in file MKL46Z4.s
   Uses
      None
Comment: FGPIOB_PCOR unused
FGPIOB_PDDR F80FF054

Symbol: FGPIOB_PDDR
   Definitions
      At line 574 in file MKL46Z4.s
   Uses
      None
Comment: FGPIOB_PDDR unused
FGPIOB_PDIR F80FF050

Symbol: FGPIOB_PDIR
   Definitions
      At line 573 in file MKL46Z4.s
   Uses
      None
Comment: FGPIOB_PDIR unused
FGPIOB_PDOR F80FF040

Symbol: FGPIOB_PDOR
   Definitions
      At line 569 in file MKL46Z4.s
   Uses
      None
Comment: FGPIOB_PDOR unused
FGPIOB_PSOR F80FF044

Symbol: FGPIOB_PSOR
   Definitions
      At line 570 in file MKL46Z4.s
   Uses
      None
Comment: FGPIOB_PSOR unused
FGPIOB_PTOR F80FF04C

Symbol: FGPIOB_PTOR
   Definitions
      At line 572 in file MKL46Z4.s
   Uses
      None
Comment: FGPIOB_PTOR unused
FGPIOC_BASE F80FF080

Symbol: FGPIOC_BASE
   Definitions
      At line 576 in file MKL46Z4.s
   Uses
      At line 577 in file MKL46Z4.s



ARM Macro Assembler    Page 40 Alphabetic symbol ordering
Absolute symbols

      At line 578 in file MKL46Z4.s
      At line 579 in file MKL46Z4.s
      At line 580 in file MKL46Z4.s
      At line 581 in file MKL46Z4.s
      At line 582 in file MKL46Z4.s

FGPIOC_PCOR F80FF088

Symbol: FGPIOC_PCOR
   Definitions
      At line 579 in file MKL46Z4.s
   Uses
      None
Comment: FGPIOC_PCOR unused
FGPIOC_PDDR F80FF094

Symbol: FGPIOC_PDDR
   Definitions
      At line 582 in file MKL46Z4.s
   Uses
      None
Comment: FGPIOC_PDDR unused
FGPIOC_PDIR F80FF090

Symbol: FGPIOC_PDIR
   Definitions
      At line 581 in file MKL46Z4.s
   Uses
      None
Comment: FGPIOC_PDIR unused
FGPIOC_PDOR F80FF080

Symbol: FGPIOC_PDOR
   Definitions
      At line 577 in file MKL46Z4.s
   Uses
      None
Comment: FGPIOC_PDOR unused
FGPIOC_PSOR F80FF084

Symbol: FGPIOC_PSOR
   Definitions
      At line 578 in file MKL46Z4.s
   Uses
      None
Comment: FGPIOC_PSOR unused
FGPIOC_PTOR F80FF08C

Symbol: FGPIOC_PTOR
   Definitions
      At line 580 in file MKL46Z4.s
   Uses
      None
Comment: FGPIOC_PTOR unused
FGPIOD_BASE F80FF0C0

Symbol: FGPIOD_BASE
   Definitions
      At line 584 in file MKL46Z4.s



ARM Macro Assembler    Page 41 Alphabetic symbol ordering
Absolute symbols

   Uses
      At line 585 in file MKL46Z4.s
      At line 586 in file MKL46Z4.s
      At line 587 in file MKL46Z4.s
      At line 588 in file MKL46Z4.s
      At line 589 in file MKL46Z4.s
      At line 590 in file MKL46Z4.s
      At line 714 in file Exercise13.s
      At line 766 in file Exercise13.s
      At line 774 in file Exercise13.s

FGPIOD_PCOR F80FF0C8

Symbol: FGPIOD_PCOR
   Definitions
      At line 587 in file MKL46Z4.s
   Uses
      None
Comment: FGPIOD_PCOR unused
FGPIOD_PDDR F80FF0D4

Symbol: FGPIOD_PDDR
   Definitions
      At line 590 in file MKL46Z4.s
   Uses
      None
Comment: FGPIOD_PDDR unused
FGPIOD_PDIR F80FF0D0

Symbol: FGPIOD_PDIR
   Definitions
      At line 589 in file MKL46Z4.s
   Uses
      None
Comment: FGPIOD_PDIR unused
FGPIOD_PDOR F80FF0C0

Symbol: FGPIOD_PDOR
   Definitions
      At line 585 in file MKL46Z4.s
   Uses
      None
Comment: FGPIOD_PDOR unused
FGPIOD_PSOR F80FF0C4

Symbol: FGPIOD_PSOR
   Definitions
      At line 586 in file MKL46Z4.s
   Uses
      None
Comment: FGPIOD_PSOR unused
FGPIOD_PTOR F80FF0CC

Symbol: FGPIOD_PTOR
   Definitions
      At line 588 in file MKL46Z4.s
   Uses
      None
Comment: FGPIOD_PTOR unused



ARM Macro Assembler    Page 42 Alphabetic symbol ordering
Absolute symbols

FGPIOE_BASE F80FF100

Symbol: FGPIOE_BASE
   Definitions
      At line 592 in file MKL46Z4.s
   Uses
      At line 593 in file MKL46Z4.s
      At line 594 in file MKL46Z4.s
      At line 595 in file MKL46Z4.s
      At line 596 in file MKL46Z4.s
      At line 597 in file MKL46Z4.s
      At line 598 in file MKL46Z4.s
      At line 718 in file Exercise13.s
      At line 750 in file Exercise13.s
      At line 758 in file Exercise13.s

FGPIOE_PCOR F80FF108

Symbol: FGPIOE_PCOR
   Definitions
      At line 595 in file MKL46Z4.s
   Uses
      None
Comment: FGPIOE_PCOR unused
FGPIOE_PDDR F80FF114

Symbol: FGPIOE_PDDR
   Definitions
      At line 598 in file MKL46Z4.s
   Uses
      None
Comment: FGPIOE_PDDR unused
FGPIOE_PDIR F80FF110

Symbol: FGPIOE_PDIR
   Definitions
      At line 597 in file MKL46Z4.s
   Uses
      None
Comment: FGPIOE_PDIR unused
FGPIOE_PDOR F80FF100

Symbol: FGPIOE_PDOR
   Definitions
      At line 593 in file MKL46Z4.s
   Uses
      None
Comment: FGPIOE_PDOR unused
FGPIOE_PSOR F80FF104

Symbol: FGPIOE_PSOR
   Definitions
      At line 594 in file MKL46Z4.s
   Uses
      None
Comment: FGPIOE_PSOR unused
FGPIOE_PTOR F80FF10C

Symbol: FGPIOE_PTOR



ARM Macro Assembler    Page 43 Alphabetic symbol ordering
Absolute symbols

   Definitions
      At line 596 in file MKL46Z4.s
   Uses
      None
Comment: FGPIOE_PTOR unused
FGPIO_BASE F80FF000

Symbol: FGPIO_BASE
   Definitions
      At line 555 in file MKL46Z4.s
   Uses
      None
Comment: FGPIO_BASE unused
FTFA_IPR E000E404

Symbol: FTFA_IPR
   Definitions
      At line 986 in file MKL46Z4.s
   Uses
      None
Comment: FTFA_IPR unused
FTFA_IRQ 00000005

Symbol: FTFA_IRQ
   Definitions
      At line 1056 in file MKL46Z4.s
   Uses
      At line 1090 in file MKL46Z4.s
Comment: FTFA_IRQ used once
FTFA_IRQ_MASK 00000020

Symbol: FTFA_IRQ_MASK
   Definitions
      At line 1090 in file MKL46Z4.s
   Uses
      None
Comment: FTFA_IRQ_MASK unused
FTFA_PRI_POS 0000000E

Symbol: FTFA_PRI_POS
   Definitions
      At line 1022 in file MKL46Z4.s
   Uses
      None
Comment: FTFA_PRI_POS unused
FTFA_Vector 00000015

Symbol: FTFA_Vector
   Definitions
      At line 1140 in file MKL46Z4.s
   Uses
      None
Comment: FTFA_Vector unused
GPIOA_BASE 400FF000

Symbol: GPIOA_BASE
   Definitions
      At line 747 in file MKL46Z4.s
   Uses



ARM Macro Assembler    Page 44 Alphabetic symbol ordering
Absolute symbols

      At line 748 in file MKL46Z4.s
      At line 749 in file MKL46Z4.s
      At line 750 in file MKL46Z4.s
      At line 751 in file MKL46Z4.s
      At line 752 in file MKL46Z4.s
      At line 753 in file MKL46Z4.s

GPIOA_OFFSET 00000000

Symbol: GPIOA_OFFSET
   Definitions
      At line 741 in file MKL46Z4.s
   Uses
      None
Comment: GPIOA_OFFSET unused
GPIOA_PCOR 400FF008

Symbol: GPIOA_PCOR
   Definitions
      At line 750 in file MKL46Z4.s
   Uses
      None
Comment: GPIOA_PCOR unused
GPIOA_PDDR 400FF014

Symbol: GPIOA_PDDR
   Definitions
      At line 753 in file MKL46Z4.s
   Uses
      None
Comment: GPIOA_PDDR unused
GPIOA_PDIR 400FF010

Symbol: GPIOA_PDIR
   Definitions
      At line 752 in file MKL46Z4.s
   Uses
      None
Comment: GPIOA_PDIR unused
GPIOA_PDOR 400FF000

Symbol: GPIOA_PDOR
   Definitions
      At line 748 in file MKL46Z4.s
   Uses
      None
Comment: GPIOA_PDOR unused
GPIOA_PSOR 400FF004

Symbol: GPIOA_PSOR
   Definitions
      At line 749 in file MKL46Z4.s
   Uses
      None
Comment: GPIOA_PSOR unused
GPIOA_PTOR 400FF00C

Symbol: GPIOA_PTOR
   Definitions



ARM Macro Assembler    Page 45 Alphabetic symbol ordering
Absolute symbols

      At line 751 in file MKL46Z4.s
   Uses
      None
Comment: GPIOA_PTOR unused
GPIOB_BASE 400FF040

Symbol: GPIOB_BASE
   Definitions
      At line 755 in file MKL46Z4.s
   Uses
      At line 756 in file MKL46Z4.s
      At line 757 in file MKL46Z4.s
      At line 758 in file MKL46Z4.s
      At line 759 in file MKL46Z4.s
      At line 760 in file MKL46Z4.s
      At line 761 in file MKL46Z4.s

GPIOB_OFFSET 00000040

Symbol: GPIOB_OFFSET
   Definitions
      At line 742 in file MKL46Z4.s
   Uses
      None
Comment: GPIOB_OFFSET unused
GPIOB_PCOR 400FF048

Symbol: GPIOB_PCOR
   Definitions
      At line 758 in file MKL46Z4.s
   Uses
      None
Comment: GPIOB_PCOR unused
GPIOB_PDDR 400FF054

Symbol: GPIOB_PDDR
   Definitions
      At line 761 in file MKL46Z4.s
   Uses
      None
Comment: GPIOB_PDDR unused
GPIOB_PDIR 400FF050

Symbol: GPIOB_PDIR
   Definitions
      At line 760 in file MKL46Z4.s
   Uses
      None
Comment: GPIOB_PDIR unused
GPIOB_PDOR 400FF040

Symbol: GPIOB_PDOR
   Definitions
      At line 756 in file MKL46Z4.s
   Uses
      None
Comment: GPIOB_PDOR unused
GPIOB_PSOR 400FF044




ARM Macro Assembler    Page 46 Alphabetic symbol ordering
Absolute symbols

Symbol: GPIOB_PSOR
   Definitions
      At line 757 in file MKL46Z4.s
   Uses
      None
Comment: GPIOB_PSOR unused
GPIOB_PTOR 400FF04C

Symbol: GPIOB_PTOR
   Definitions
      At line 759 in file MKL46Z4.s
   Uses
      None
Comment: GPIOB_PTOR unused
GPIOC_BASE 400FF080

Symbol: GPIOC_BASE
   Definitions
      At line 763 in file MKL46Z4.s
   Uses
      At line 764 in file MKL46Z4.s
      At line 765 in file MKL46Z4.s
      At line 766 in file MKL46Z4.s
      At line 767 in file MKL46Z4.s
      At line 768 in file MKL46Z4.s
      At line 769 in file MKL46Z4.s

GPIOC_OFFSET 00000080

Symbol: GPIOC_OFFSET
   Definitions
      At line 743 in file MKL46Z4.s
   Uses
      None
Comment: GPIOC_OFFSET unused
GPIOC_PCOR 400FF088

Symbol: GPIOC_PCOR
   Definitions
      At line 766 in file MKL46Z4.s
   Uses
      None
Comment: GPIOC_PCOR unused
GPIOC_PDDR 400FF094

Symbol: GPIOC_PDDR
   Definitions
      At line 769 in file MKL46Z4.s
   Uses
      None
Comment: GPIOC_PDDR unused
GPIOC_PDIR 400FF090

Symbol: GPIOC_PDIR
   Definitions
      At line 768 in file MKL46Z4.s
   Uses
      None
Comment: GPIOC_PDIR unused



ARM Macro Assembler    Page 47 Alphabetic symbol ordering
Absolute symbols

GPIOC_PDOR 400FF080

Symbol: GPIOC_PDOR
   Definitions
      At line 764 in file MKL46Z4.s
   Uses
      None
Comment: GPIOC_PDOR unused
GPIOC_PSOR 400FF084

Symbol: GPIOC_PSOR
   Definitions
      At line 765 in file MKL46Z4.s
   Uses
      None
Comment: GPIOC_PSOR unused
GPIOC_PTOR 400FF08C

Symbol: GPIOC_PTOR
   Definitions
      At line 767 in file MKL46Z4.s
   Uses
      None
Comment: GPIOC_PTOR unused
GPIOD_BASE 400FF0C0

Symbol: GPIOD_BASE
   Definitions
      At line 771 in file MKL46Z4.s
   Uses
      At line 772 in file MKL46Z4.s
      At line 773 in file MKL46Z4.s
      At line 774 in file MKL46Z4.s
      At line 775 in file MKL46Z4.s
      At line 776 in file MKL46Z4.s
      At line 777 in file MKL46Z4.s

GPIOD_OFFSET 000000C0

Symbol: GPIOD_OFFSET
   Definitions
      At line 744 in file MKL46Z4.s
   Uses
      None
Comment: GPIOD_OFFSET unused
GPIOD_PCOR 400FF0C8

Symbol: GPIOD_PCOR
   Definitions
      At line 774 in file MKL46Z4.s
   Uses
      None
Comment: GPIOD_PCOR unused
GPIOD_PDDR 400FF0D4

Symbol: GPIOD_PDDR
   Definitions
      At line 777 in file MKL46Z4.s
   Uses



ARM Macro Assembler    Page 48 Alphabetic symbol ordering
Absolute symbols

      None
Comment: GPIOD_PDDR unused
GPIOD_PDIR 400FF0D0

Symbol: GPIOD_PDIR
   Definitions
      At line 776 in file MKL46Z4.s
   Uses
      None
Comment: GPIOD_PDIR unused
GPIOD_PDOR 400FF0C0

Symbol: GPIOD_PDOR
   Definitions
      At line 772 in file MKL46Z4.s
   Uses
      None
Comment: GPIOD_PDOR unused
GPIOD_PSOR 400FF0C4

Symbol: GPIOD_PSOR
   Definitions
      At line 773 in file MKL46Z4.s
   Uses
      None
Comment: GPIOD_PSOR unused
GPIOD_PTOR 400FF0CC

Symbol: GPIOD_PTOR
   Definitions
      At line 775 in file MKL46Z4.s
   Uses
      None
Comment: GPIOD_PTOR unused
GPIOE_BASE 400FF100

Symbol: GPIOE_BASE
   Definitions
      At line 779 in file MKL46Z4.s
   Uses
      At line 780 in file MKL46Z4.s
      At line 781 in file MKL46Z4.s
      At line 782 in file MKL46Z4.s
      At line 783 in file MKL46Z4.s
      At line 784 in file MKL46Z4.s
      At line 785 in file MKL46Z4.s

GPIOE_OFFSET 00000100

Symbol: GPIOE_OFFSET
   Definitions
      At line 745 in file MKL46Z4.s
   Uses
      None
Comment: GPIOE_OFFSET unused
GPIOE_PCOR 400FF108

Symbol: GPIOE_PCOR
   Definitions



ARM Macro Assembler    Page 49 Alphabetic symbol ordering
Absolute symbols

      At line 782 in file MKL46Z4.s
   Uses
      None
Comment: GPIOE_PCOR unused
GPIOE_PDDR 400FF114

Symbol: GPIOE_PDDR
   Definitions
      At line 785 in file MKL46Z4.s
   Uses
      None
Comment: GPIOE_PDDR unused
GPIOE_PDIR 400FF110

Symbol: GPIOE_PDIR
   Definitions
      At line 784 in file MKL46Z4.s
   Uses
      None
Comment: GPIOE_PDIR unused
GPIOE_PDOR 400FF100

Symbol: GPIOE_PDOR
   Definitions
      At line 780 in file MKL46Z4.s
   Uses
      None
Comment: GPIOE_PDOR unused
GPIOE_PSOR 400FF104

Symbol: GPIOE_PSOR
   Definitions
      At line 781 in file MKL46Z4.s
   Uses
      None
Comment: GPIOE_PSOR unused
GPIOE_PTOR 400FF10C

Symbol: GPIOE_PTOR
   Definitions
      At line 783 in file MKL46Z4.s
   Uses
      None
Comment: GPIOE_PTOR unused
GPIO_BASE 400FF000

Symbol: GPIO_BASE
   Definitions
      At line 734 in file MKL46Z4.s
   Uses
      None
Comment: GPIO_BASE unused
GPIO_PCOR_OFFSET 00000008

Symbol: GPIO_PCOR_OFFSET
   Definitions
      At line 737 in file MKL46Z4.s
   Uses
      At line 563 in file MKL46Z4.s



ARM Macro Assembler    Page 50 Alphabetic symbol ordering
Absolute symbols

      At line 571 in file MKL46Z4.s
      At line 579 in file MKL46Z4.s
      At line 587 in file MKL46Z4.s
      At line 595 in file MKL46Z4.s
      At line 750 in file MKL46Z4.s
      At line 758 in file MKL46Z4.s
      At line 766 in file MKL46Z4.s
      At line 774 in file MKL46Z4.s
      At line 782 in file MKL46Z4.s
      At line 752 in file Exercise13.s
      At line 776 in file Exercise13.s

GPIO_PDDR_OFFSET 00000014

Symbol: GPIO_PDDR_OFFSET
   Definitions
      At line 740 in file MKL46Z4.s
   Uses
      At line 566 in file MKL46Z4.s
      At line 574 in file MKL46Z4.s
      At line 582 in file MKL46Z4.s
      At line 590 in file MKL46Z4.s
      At line 598 in file MKL46Z4.s
      At line 753 in file MKL46Z4.s
      At line 761 in file MKL46Z4.s
      At line 769 in file MKL46Z4.s
      At line 777 in file MKL46Z4.s
      At line 785 in file MKL46Z4.s
      At line 716 in file Exercise13.s
      At line 720 in file Exercise13.s

GPIO_PDIR_OFFSET 00000010

Symbol: GPIO_PDIR_OFFSET
   Definitions
      At line 739 in file MKL46Z4.s
   Uses
      At line 565 in file MKL46Z4.s
      At line 573 in file MKL46Z4.s
      At line 581 in file MKL46Z4.s
      At line 589 in file MKL46Z4.s
      At line 597 in file MKL46Z4.s
      At line 752 in file MKL46Z4.s
      At line 760 in file MKL46Z4.s
      At line 768 in file MKL46Z4.s
      At line 776 in file MKL46Z4.s
      At line 784 in file MKL46Z4.s

GPIO_PDOR_OFFSET 00000000

Symbol: GPIO_PDOR_OFFSET
   Definitions
      At line 735 in file MKL46Z4.s
   Uses
      At line 561 in file MKL46Z4.s
      At line 569 in file MKL46Z4.s
      At line 577 in file MKL46Z4.s
      At line 585 in file MKL46Z4.s
      At line 593 in file MKL46Z4.s



ARM Macro Assembler    Page 51 Alphabetic symbol ordering
Absolute symbols

      At line 748 in file MKL46Z4.s
      At line 756 in file MKL46Z4.s
      At line 764 in file MKL46Z4.s
      At line 772 in file MKL46Z4.s
      At line 780 in file MKL46Z4.s

GPIO_PSOR_OFFSET 00000004

Symbol: GPIO_PSOR_OFFSET
   Definitions
      At line 736 in file MKL46Z4.s
   Uses
      At line 562 in file MKL46Z4.s
      At line 570 in file MKL46Z4.s
      At line 578 in file MKL46Z4.s
      At line 586 in file MKL46Z4.s
      At line 594 in file MKL46Z4.s
      At line 749 in file MKL46Z4.s
      At line 757 in file MKL46Z4.s
      At line 765 in file MKL46Z4.s
      At line 773 in file MKL46Z4.s
      At line 781 in file MKL46Z4.s
      At line 760 in file Exercise13.s
      At line 768 in file Exercise13.s

GPIO_PTOR_OFFSET 0000000C

Symbol: GPIO_PTOR_OFFSET
   Definitions
      At line 738 in file MKL46Z4.s
   Uses
      At line 564 in file MKL46Z4.s
      At line 572 in file MKL46Z4.s
      At line 580 in file MKL46Z4.s
      At line 588 in file MKL46Z4.s
      At line 596 in file MKL46Z4.s
      At line 751 in file MKL46Z4.s
      At line 759 in file MKL46Z4.s
      At line 767 in file MKL46Z4.s
      At line 775 in file MKL46Z4.s
      At line 783 in file MKL46Z4.s

HALFWORD_SIZE 00000002

Symbol: HALFWORD_SIZE
   Definitions
      At line 24 in file MKL46Z4.s
   Uses
      None
Comment: HALFWORD_SIZE unused
Hard_Fault_Vector 00000003

Symbol: Hard_Fault_Vector
   Definitions
      At line 1122 in file MKL46Z4.s
   Uses
      None
Comment: Hard_Fault_Vector unused
I2C0_IPR E000E408



ARM Macro Assembler    Page 52 Alphabetic symbol ordering
Absolute symbols


Symbol: I2C0_IPR
   Definitions
      At line 989 in file MKL46Z4.s
   Uses
      None
Comment: I2C0_IPR unused
I2C0_IRQ 00000008

Symbol: I2C0_IRQ
   Definitions
      At line 1059 in file MKL46Z4.s
   Uses
      At line 1093 in file MKL46Z4.s
Comment: I2C0_IRQ used once
I2C0_IRQ_MASK 00000100

Symbol: I2C0_IRQ_MASK
   Definitions
      At line 1093 in file MKL46Z4.s
   Uses
      None
Comment: I2C0_IRQ_MASK unused
I2C0_PRI_POS 00000006

Symbol: I2C0_PRI_POS
   Definitions
      At line 1025 in file MKL46Z4.s
   Uses
      None
Comment: I2C0_PRI_POS unused
I2C0_Vector 00000018

Symbol: I2C0_Vector
   Definitions
      At line 1143 in file MKL46Z4.s
   Uses
      None
Comment: I2C0_Vector unused
I2C1_IPR E000E408

Symbol: I2C1_IPR
   Definitions
      At line 990 in file MKL46Z4.s
   Uses
      None
Comment: I2C1_IPR unused
I2C1_IRQ 00000009

Symbol: I2C1_IRQ
   Definitions
      At line 1060 in file MKL46Z4.s
   Uses
      At line 1094 in file MKL46Z4.s
Comment: I2C1_IRQ used once
I2C1_IRQ_MASK 00000200

Symbol: I2C1_IRQ_MASK
   Definitions



ARM Macro Assembler    Page 53 Alphabetic symbol ordering
Absolute symbols

      At line 1094 in file MKL46Z4.s
   Uses
      None
Comment: I2C1_IRQ_MASK unused
I2C1_PRI_POS 0000000E

Symbol: I2C1_PRI_POS
   Definitions
      At line 1026 in file MKL46Z4.s
   Uses
      None
Comment: I2C1_PRI_POS unused
I2C1_Vector 00000019

Symbol: I2C1_Vector
   Definitions
      At line 1144 in file MKL46Z4.s
   Uses
      None
Comment: I2C1_Vector unused
I2S0_IPR E000E414

Symbol: I2S0_IPR
   Definitions
      At line 1004 in file MKL46Z4.s
   Uses
      None
Comment: I2S0_IPR unused
I2S0_IRQ 00000017

Symbol: I2S0_IRQ
   Definitions
      At line 1074 in file MKL46Z4.s
   Uses
      At line 1108 in file MKL46Z4.s
Comment: I2S0_IRQ used once
I2S0_IRQ_MASK 00800000

Symbol: I2S0_IRQ_MASK
   Definitions
      At line 1108 in file MKL46Z4.s
   Uses
      None
Comment: I2S0_IRQ_MASK unused
I2S0_PRI_POS 0000001E

Symbol: I2S0_PRI_POS
   Definitions
      At line 1040 in file MKL46Z4.s
   Uses
      None
Comment: I2S0_PRI_POS unused
I2S0_Vector 00000027

Symbol: I2S0_Vector
   Definitions
      At line 1158 in file MKL46Z4.s
   Uses
      None



ARM Macro Assembler    Page 54 Alphabetic symbol ordering
Absolute symbols

Comment: I2S0_Vector unused
IN_PTR 00000000

Symbol: IN_PTR
   Definitions
      At line 22 in file Exercise13.s
   Uses
      At line 421 in file Exercise13.s
      At line 433 in file Exercise13.s
      At line 445 in file Exercise13.s
      At line 632 in file Exercise13.s
      At line 642 in file Exercise13.s
      At line 648 in file Exercise13.s

IPSR_EXCEPTION_MASK 0000003F

Symbol: IPSR_EXCEPTION_MASK
   Definitions
      At line 81 in file MKL46Z4.s
   Uses
      At line 94 in file MKL46Z4.s
Comment: IPSR_EXCEPTION_MASK used once
IPSR_EXCEPTION_SHIFT 00000000

Symbol: IPSR_EXCEPTION_SHIFT
   Definitions
      At line 82 in file MKL46Z4.s
   Uses
      At line 95 in file MKL46Z4.s
Comment: IPSR_EXCEPTION_SHIFT used once
IPSR_MASK 0000003F

Symbol: IPSR_MASK
   Definitions
      At line 79 in file MKL46Z4.s
   Uses
      None
Comment: IPSR_MASK unused
IPSR_SHIFT 00000000

Symbol: IPSR_SHIFT
   Definitions
      At line 80 in file MKL46Z4.s
   Uses
      None
Comment: IPSR_SHIFT unused
Init_SP_Vector 00000000

Symbol: Init_SP_Vector
   Definitions
      At line 1119 in file MKL46Z4.s
   Uses
      None
Comment: Init_SP_Vector unused
LCD_IPR E000E41C

Symbol: LCD_IPR
   Definitions
      At line 1010 in file MKL46Z4.s



ARM Macro Assembler    Page 55 Alphabetic symbol ordering
Absolute symbols

   Uses
      None
Comment: LCD_IPR unused
LCD_IRQ 0000001D

Symbol: LCD_IRQ
   Definitions
      At line 1080 in file MKL46Z4.s
   Uses
      At line 1114 in file MKL46Z4.s
Comment: LCD_IRQ used once
LCD_IRQ_MASK 20000000

Symbol: LCD_IRQ_MASK
   Definitions
      At line 1114 in file MKL46Z4.s
   Uses
      None
Comment: LCD_IRQ_MASK unused
LCD_PRI_POS 0000000E

Symbol: LCD_PRI_POS
   Definitions
      At line 1046 in file MKL46Z4.s
   Uses
      None
Comment: LCD_PRI_POS unused
LCD_Vector 0000002D

Symbol: LCD_Vector
   Definitions
      At line 1164 in file MKL46Z4.s
   Uses
      None
Comment: LCD_Vector unused
LED_GREEN_MASK 00000020

Symbol: LED_GREEN_MASK
   Definitions
      At line 57 in file Exercise13.s
   Uses
      At line 58 in file Exercise13.s
      At line 767 in file Exercise13.s
      At line 775 in file Exercise13.s

LED_PORTD_MASK 00000020

Symbol: LED_PORTD_MASK
   Definitions
      At line 58 in file Exercise13.s
   Uses
      At line 715 in file Exercise13.s
Comment: LED_PORTD_MASK used once
LED_PORTE_MASK 20000000

Symbol: LED_PORTE_MASK
   Definitions
      At line 59 in file Exercise13.s
   Uses



ARM Macro Assembler    Page 56 Alphabetic symbol ordering
Absolute symbols

      At line 719 in file Exercise13.s
Comment: LED_PORTE_MASK used once
LED_RED_MASK 20000000

Symbol: LED_RED_MASK
   Definitions
      At line 56 in file Exercise13.s
   Uses
      At line 59 in file Exercise13.s
      At line 751 in file Exercise13.s
      At line 759 in file Exercise13.s

LF 0000000A

Symbol: LF
   Definitions
      At line 34 in file Exercise13.s
   Uses
      At line 319 in file Exercise13.s
      At line 684 in file Exercise13.s

LLWU_IPR E000E404

Symbol: LLWU_IPR
   Definitions
      At line 988 in file MKL46Z4.s
   Uses
      None
Comment: LLWU_IPR unused
LLWU_IRQ 00000007

Symbol: LLWU_IRQ
   Definitions
      At line 1058 in file MKL46Z4.s
   Uses
      At line 1092 in file MKL46Z4.s
Comment: LLWU_IRQ used once
LLWU_IRQ_MASK 00000080

Symbol: LLWU_IRQ_MASK
   Definitions
      At line 1092 in file MKL46Z4.s
   Uses
      None
Comment: LLWU_IRQ_MASK unused
LLWU_PRI_POS 0000001E

Symbol: LLWU_PRI_POS
   Definitions
      At line 1024 in file MKL46Z4.s
   Uses
      None
Comment: LLWU_PRI_POS unused
LLWU_Vector 00000017

Symbol: LLWU_Vector
   Definitions
      At line 1142 in file MKL46Z4.s
   Uses



ARM Macro Assembler    Page 57 Alphabetic symbol ordering
Absolute symbols

      None
Comment: LLWU_Vector unused
LPTMR0_IPR E000E41C

Symbol: LPTMR0_IPR
   Definitions
      At line 1009 in file MKL46Z4.s
   Uses
      None
Comment: LPTMR0_IPR unused
LPTMR0_IRQ 0000001C

Symbol: LPTMR0_IRQ
   Definitions
      At line 1079 in file MKL46Z4.s
   Uses
      At line 1113 in file MKL46Z4.s
Comment: LPTMR0_IRQ used once
LPTMR0_IRQ_MASK 10000000

Symbol: LPTMR0_IRQ_MASK
   Definitions
      At line 1113 in file MKL46Z4.s
   Uses
      None
Comment: LPTMR0_IRQ_MASK unused
LPTMR0_PRI_POS 00000006

Symbol: LPTMR0_PRI_POS
   Definitions
      At line 1045 in file MKL46Z4.s
   Uses
      None
Comment: LPTMR0_PRI_POS unused
LPTMR0_Vector 0000002C

Symbol: LPTMR0_Vector
   Definitions
      At line 1163 in file MKL46Z4.s
   Uses
      None
Comment: LPTMR0_Vector unused
MAX_STRING 0000004F

Symbol: MAX_STRING
   Definitions
      At line 32 in file Exercise13.s
   Uses
      At line 670 in file Exercise13.s
      At line 1211 in file Exercise13.s

MCG_BASE 40064000

Symbol: MCG_BASE
   Definitions
      At line 791 in file MKL46Z4.s
   Uses
      At line 798 in file MKL46Z4.s
      At line 799 in file MKL46Z4.s



ARM Macro Assembler    Page 58 Alphabetic symbol ordering
Absolute symbols

      At line 800 in file MKL46Z4.s
      At line 801 in file MKL46Z4.s
      At line 802 in file MKL46Z4.s
      At line 803 in file MKL46Z4.s

MCG_C1 40064000

Symbol: MCG_C1
   Definitions
      At line 798 in file MKL46Z4.s
   Uses
      None
Comment: MCG_C1 unused
MCG_C1_CLKS_EXT_MASK 00000080

Symbol: MCG_C1_CLKS_EXT_MASK
   Definitions
      At line 837 in file MKL46Z4.s
   Uses
      At line 842 in file MKL46Z4.s
Comment: MCG_C1_CLKS_EXT_MASK used once
MCG_C1_CLKS_INT_MASK 00000040

Symbol: MCG_C1_CLKS_INT_MASK
   Definitions
      At line 838 in file MKL46Z4.s
   Uses
      None
Comment: MCG_C1_CLKS_INT_MASK unused
MCG_C1_CLKS_MASK 000000C0

Symbol: MCG_C1_CLKS_MASK
   Definitions
      At line 827 in file MKL46Z4.s
   Uses
      None
Comment: MCG_C1_CLKS_MASK unused
MCG_C1_CLKS_PLL_MASK 00000000

Symbol: MCG_C1_CLKS_PLL_MASK
   Definitions
      At line 839 in file MKL46Z4.s
   Uses
      None
Comment: MCG_C1_CLKS_PLL_MASK unused
MCG_C1_CLKS_SHIFT 00000006

Symbol: MCG_C1_CLKS_SHIFT
   Definitions
      At line 828 in file MKL46Z4.s
   Uses
      None
Comment: MCG_C1_CLKS_SHIFT unused
MCG_C1_EXT_DIV256 00000098

Symbol: MCG_C1_EXT_DIV256
   Definitions
      At line 842 in file MKL46Z4.s
   Uses



ARM Macro Assembler    Page 59 Alphabetic symbol ordering
Absolute symbols

      None
Comment: MCG_C1_EXT_DIV256 unused
MCG_C1_FRDIV_256_MASK 00000018

Symbol: MCG_C1_FRDIV_256_MASK
   Definitions
      At line 840 in file MKL46Z4.s
   Uses
      At line 842 in file MKL46Z4.s
Comment: MCG_C1_FRDIV_256_MASK used once
MCG_C1_FRDIV_MASK 00000038

Symbol: MCG_C1_FRDIV_MASK
   Definitions
      At line 829 in file MKL46Z4.s
   Uses
      None
Comment: MCG_C1_FRDIV_MASK unused
MCG_C1_FRDIV_SHIFT 00000003

Symbol: MCG_C1_FRDIV_SHIFT
   Definitions
      At line 830 in file MKL46Z4.s
   Uses
      None
Comment: MCG_C1_FRDIV_SHIFT unused
MCG_C1_IRCLKEN_MASK 00000002

Symbol: MCG_C1_IRCLKEN_MASK
   Definitions
      At line 833 in file MKL46Z4.s
   Uses
      None
Comment: MCG_C1_IRCLKEN_MASK unused
MCG_C1_IRCLKEN_SHIFT 00000001

Symbol: MCG_C1_IRCLKEN_SHIFT
   Definitions
      At line 834 in file MKL46Z4.s
   Uses
      None
Comment: MCG_C1_IRCLKEN_SHIFT unused
MCG_C1_IREFSTEN_MASK 00000001

Symbol: MCG_C1_IREFSTEN_MASK
   Definitions
      At line 835 in file MKL46Z4.s
   Uses
      None
Comment: MCG_C1_IREFSTEN_MASK unused
MCG_C1_IREFSTEN_SHIFT 00000000

Symbol: MCG_C1_IREFSTEN_SHIFT
   Definitions
      At line 836 in file MKL46Z4.s
   Uses
      None
Comment: MCG_C1_IREFSTEN_SHIFT unused
MCG_C1_IREFS_MASK 00000004



ARM Macro Assembler    Page 60 Alphabetic symbol ordering
Absolute symbols


Symbol: MCG_C1_IREFS_MASK
   Definitions
      At line 831 in file MKL46Z4.s
   Uses
      None
Comment: MCG_C1_IREFS_MASK unused
MCG_C1_IREFS_SHIFT 00000002

Symbol: MCG_C1_IREFS_SHIFT
   Definitions
      At line 832 in file MKL46Z4.s
   Uses
      None
Comment: MCG_C1_IREFS_SHIFT unused
MCG_C1_OFFSET 00000000

Symbol: MCG_C1_OFFSET
   Definitions
      At line 792 in file MKL46Z4.s
   Uses
      At line 798 in file MKL46Z4.s
Comment: MCG_C1_OFFSET used once
MCG_C2 40064001

Symbol: MCG_C2
   Definitions
      At line 799 in file MKL46Z4.s
   Uses
      None
Comment: MCG_C2 unused
MCG_C2_EREFS0_MASK 00000004

Symbol: MCG_C2_EREFS0_MASK
   Definitions
      At line 871 in file MKL46Z4.s
   Uses
      At line 879 in file MKL46Z4.s
Comment: MCG_C2_EREFS0_MASK used once
MCG_C2_EREFS0_SHIFT 00000002

Symbol: MCG_C2_EREFS0_SHIFT
   Definitions
      At line 872 in file MKL46Z4.s
   Uses
      None
Comment: MCG_C2_EREFS0_SHIFT unused
MCG_C2_HF_LP_OSC 00000014

Symbol: MCG_C2_HF_LP_OSC
   Definitions
      At line 879 in file MKL46Z4.s
   Uses
      None
Comment: MCG_C2_HF_LP_OSC unused
MCG_C2_HGO0_MASK 00000008

Symbol: MCG_C2_HGO0_MASK
   Definitions



ARM Macro Assembler    Page 61 Alphabetic symbol ordering
Absolute symbols

      At line 869 in file MKL46Z4.s
   Uses
      None
Comment: MCG_C2_HGO0_MASK unused
MCG_C2_HGO0_SHIFT 00000003

Symbol: MCG_C2_HGO0_SHIFT
   Definitions
      At line 870 in file MKL46Z4.s
   Uses
      None
Comment: MCG_C2_HGO0_SHIFT unused
MCG_C2_IRCS_MASK 00000001

Symbol: MCG_C2_IRCS_MASK
   Definitions
      At line 875 in file MKL46Z4.s
   Uses
      None
Comment: MCG_C2_IRCS_MASK unused
MCG_C2_IRCS_SHIFT 00000000

Symbol: MCG_C2_IRCS_SHIFT
   Definitions
      At line 876 in file MKL46Z4.s
   Uses
      None
Comment: MCG_C2_IRCS_SHIFT unused
MCG_C2_LOCRE0_MASK 00000080

Symbol: MCG_C2_LOCRE0_MASK
   Definitions
      At line 865 in file MKL46Z4.s
   Uses
      None
Comment: MCG_C2_LOCRE0_MASK unused
MCG_C2_LOCRE0_SHIFT 00000007

Symbol: MCG_C2_LOCRE0_SHIFT
   Definitions
      At line 866 in file MKL46Z4.s
   Uses
      None
Comment: MCG_C2_LOCRE0_SHIFT unused
MCG_C2_LP_MASK 00000002

Symbol: MCG_C2_LP_MASK
   Definitions
      At line 873 in file MKL46Z4.s
   Uses
      None
Comment: MCG_C2_LP_MASK unused
MCG_C2_LP_SHIFT 00000001

Symbol: MCG_C2_LP_SHIFT
   Definitions
      At line 874 in file MKL46Z4.s
   Uses
      None



ARM Macro Assembler    Page 62 Alphabetic symbol ordering
Absolute symbols

Comment: MCG_C2_LP_SHIFT unused
MCG_C2_OFFSET 00000001

Symbol: MCG_C2_OFFSET
   Definitions
      At line 793 in file MKL46Z4.s
   Uses
      At line 799 in file MKL46Z4.s
Comment: MCG_C2_OFFSET used once
MCG_C2_RANGE0_HIGH_MASK 00000010

Symbol: MCG_C2_RANGE0_HIGH_MASK
   Definitions
      At line 877 in file MKL46Z4.s
   Uses
      At line 879 in file MKL46Z4.s
Comment: MCG_C2_RANGE0_HIGH_MASK used once
MCG_C2_RANGE0_MASK 00000030

Symbol: MCG_C2_RANGE0_MASK
   Definitions
      At line 867 in file MKL46Z4.s
   Uses
      None
Comment: MCG_C2_RANGE0_MASK unused
MCG_C2_RANGE0_SHIFT 00000004

Symbol: MCG_C2_RANGE0_SHIFT
   Definitions
      At line 868 in file MKL46Z4.s
   Uses
      None
Comment: MCG_C2_RANGE0_SHIFT unused
MCG_C4 40064003

Symbol: MCG_C4
   Definitions
      At line 800 in file MKL46Z4.s
   Uses
      None
Comment: MCG_C4 unused
MCG_C4_OFFSET 00000003

Symbol: MCG_C4_OFFSET
   Definitions
      At line 794 in file MKL46Z4.s
   Uses
      At line 800 in file MKL46Z4.s
Comment: MCG_C4_OFFSET used once
MCG_C5 40064004

Symbol: MCG_C5
   Definitions
      At line 801 in file MKL46Z4.s
   Uses
      None
Comment: MCG_C5 unused
MCG_C5_OFFSET 00000004




ARM Macro Assembler    Page 63 Alphabetic symbol ordering
Absolute symbols

Symbol: MCG_C5_OFFSET
   Definitions
      At line 795 in file MKL46Z4.s
   Uses
      At line 801 in file MKL46Z4.s
Comment: MCG_C5_OFFSET used once
MCG_C5_PLLCLKEN0_MASK 00000040

Symbol: MCG_C5_PLLCLKEN0_MASK
   Definitions
      At line 888 in file MKL46Z4.s
   Uses
      None
Comment: MCG_C5_PLLCLKEN0_MASK unused
MCG_C5_PLLCLKEN0_SHIFT 00000006

Symbol: MCG_C5_PLLCLKEN0_SHIFT
   Definitions
      At line 889 in file MKL46Z4.s
   Uses
      None
Comment: MCG_C5_PLLCLKEN0_SHIFT unused
MCG_C5_PLLSTEN0_MASK 00000020

Symbol: MCG_C5_PLLSTEN0_MASK
   Definitions
      At line 890 in file MKL46Z4.s
   Uses
      None
Comment: MCG_C5_PLLSTEN0_MASK unused
MCG_C5_PLLSTEN0_SHIFT 00000005

Symbol: MCG_C5_PLLSTEN0_SHIFT
   Definitions
      At line 891 in file MKL46Z4.s
   Uses
      None
Comment: MCG_C5_PLLSTEN0_SHIFT unused
MCG_C5_PRDIV0_DIV2 00000001

Symbol: MCG_C5_PRDIV0_DIV2
   Definitions
      At line 894 in file MKL46Z4.s
   Uses
      None
Comment: MCG_C5_PRDIV0_DIV2 unused
MCG_C5_PRDIV0_MASK 0000001F

Symbol: MCG_C5_PRDIV0_MASK
   Definitions
      At line 892 in file MKL46Z4.s
   Uses
      None
Comment: MCG_C5_PRDIV0_MASK unused
MCG_C5_PRDIV0_SHIFT 00000000

Symbol: MCG_C5_PRDIV0_SHIFT
   Definitions
      At line 893 in file MKL46Z4.s



ARM Macro Assembler    Page 64 Alphabetic symbol ordering
Absolute symbols

   Uses
      None
Comment: MCG_C5_PRDIV0_SHIFT unused
MCG_C6 40064005

Symbol: MCG_C6
   Definitions
      At line 802 in file MKL46Z4.s
   Uses
      None
Comment: MCG_C6 unused
MCG_C6_CME0_MASK 00000020

Symbol: MCG_C6_CME0_MASK
   Definitions
      At line 908 in file MKL46Z4.s
   Uses
      None
Comment: MCG_C6_CME0_MASK unused
MCG_C6_CME0_SHIFT 00000005

Symbol: MCG_C6_CME0_SHIFT
   Definitions
      At line 909 in file MKL46Z4.s
   Uses
      None
Comment: MCG_C6_CME0_SHIFT unused
MCG_C6_LOLIE0_MASK 00000080

Symbol: MCG_C6_LOLIE0_MASK
   Definitions
      At line 904 in file MKL46Z4.s
   Uses
      None
Comment: MCG_C6_LOLIE0_MASK unused
MCG_C6_LOLIE0_SHIFT 00000007

Symbol: MCG_C6_LOLIE0_SHIFT
   Definitions
      At line 905 in file MKL46Z4.s
   Uses
      None
Comment: MCG_C6_LOLIE0_SHIFT unused
MCG_C6_OFFSET 00000005

Symbol: MCG_C6_OFFSET
   Definitions
      At line 796 in file MKL46Z4.s
   Uses
      At line 802 in file MKL46Z4.s
Comment: MCG_C6_OFFSET used once
MCG_C6_PLLS_MASK 00000040

Symbol: MCG_C6_PLLS_MASK
   Definitions
      At line 906 in file MKL46Z4.s
   Uses
      At line 913 in file MKL46Z4.s
Comment: MCG_C6_PLLS_MASK used once



ARM Macro Assembler    Page 65 Alphabetic symbol ordering
Absolute symbols

MCG_C6_PLLS_PLL_MASK 00000040

Symbol: MCG_C6_PLLS_PLL_MASK
   Definitions
      At line 913 in file MKL46Z4.s
   Uses
      At line 915 in file MKL46Z4.s
Comment: MCG_C6_PLLS_PLL_MASK used once
MCG_C6_PLLS_SHIFT 00000006

Symbol: MCG_C6_PLLS_SHIFT
   Definitions
      At line 907 in file MKL46Z4.s
   Uses
      None
Comment: MCG_C6_PLLS_SHIFT unused
MCG_C6_PLL_MUL24 00000040

Symbol: MCG_C6_PLL_MUL24
   Definitions
      At line 915 in file MKL46Z4.s
   Uses
      None
Comment: MCG_C6_PLL_MUL24 unused
MCG_C6_VDIV0_MASK 0000001F

Symbol: MCG_C6_VDIV0_MASK
   Definitions
      At line 910 in file MKL46Z4.s
   Uses
      None
Comment: MCG_C6_VDIV0_MASK unused
MCG_C6_VDIV0_MUL24 00000000

Symbol: MCG_C6_VDIV0_MUL24
   Definitions
      At line 912 in file MKL46Z4.s
   Uses
      At line 915 in file MKL46Z4.s
Comment: MCG_C6_VDIV0_MUL24 used once
MCG_C6_VDIV0_SHIFT 00000000

Symbol: MCG_C6_VDIV0_SHIFT
   Definitions
      At line 911 in file MKL46Z4.s
   Uses
      None
Comment: MCG_C6_VDIV0_SHIFT unused
MCG_IPR E000E418

Symbol: MCG_IPR
   Definitions
      At line 1008 in file MKL46Z4.s
   Uses
      None
Comment: MCG_IPR unused
MCG_IRQ 0000001B

Symbol: MCG_IRQ



ARM Macro Assembler    Page 66 Alphabetic symbol ordering
Absolute symbols

   Definitions
      At line 1078 in file MKL46Z4.s
   Uses
      At line 1112 in file MKL46Z4.s
Comment: MCG_IRQ used once
MCG_IRQ_MASK 08000000

Symbol: MCG_IRQ_MASK
   Definitions
      At line 1112 in file MKL46Z4.s
   Uses
      None
Comment: MCG_IRQ_MASK unused
MCG_PRI_POS 0000001E

Symbol: MCG_PRI_POS
   Definitions
      At line 1044 in file MKL46Z4.s
   Uses
      None
Comment: MCG_PRI_POS unused
MCG_S 40064006

Symbol: MCG_S
   Definitions
      At line 803 in file MKL46Z4.s
   Uses
      None
Comment: MCG_S unused
MCG_S_CLKST_EXT_MASK 00000008

Symbol: MCG_S_CLKST_EXT_MASK
   Definitions
      At line 949 in file MKL46Z4.s
   Uses
      None
Comment: MCG_S_CLKST_EXT_MASK unused
MCG_S_CLKST_MASK 0000000C

Symbol: MCG_S_CLKST_MASK
   Definitions
      At line 943 in file MKL46Z4.s
   Uses
      None
Comment: MCG_S_CLKST_MASK unused
MCG_S_CLKST_PLL_MASK 0000000C

Symbol: MCG_S_CLKST_PLL_MASK
   Definitions
      At line 950 in file MKL46Z4.s
   Uses
      None
Comment: MCG_S_CLKST_PLL_MASK unused
MCG_S_CLKST_SHIFT 00000002

Symbol: MCG_S_CLKST_SHIFT
   Definitions
      At line 944 in file MKL46Z4.s
   Uses



ARM Macro Assembler    Page 67 Alphabetic symbol ordering
Absolute symbols

      None
Comment: MCG_S_CLKST_SHIFT unused
MCG_S_IRCST_MASK 00000001

Symbol: MCG_S_IRCST_MASK
   Definitions
      At line 947 in file MKL46Z4.s
   Uses
      None
Comment: MCG_S_IRCST_MASK unused
MCG_S_IRCST_SHIFT 00000000

Symbol: MCG_S_IRCST_SHIFT
   Definitions
      At line 948 in file MKL46Z4.s
   Uses
      None
Comment: MCG_S_IRCST_SHIFT unused
MCG_S_IREFST_MASK 00000010

Symbol: MCG_S_IREFST_MASK
   Definitions
      At line 941 in file MKL46Z4.s
   Uses
      None
Comment: MCG_S_IREFST_MASK unused
MCG_S_IREFST_SHIFT 00000004

Symbol: MCG_S_IREFST_SHIFT
   Definitions
      At line 942 in file MKL46Z4.s
   Uses
      None
Comment: MCG_S_IREFST_SHIFT unused
MCG_S_LOCK0_MASK 00000040

Symbol: MCG_S_LOCK0_MASK
   Definitions
      At line 937 in file MKL46Z4.s
   Uses
      None
Comment: MCG_S_LOCK0_MASK unused
MCG_S_LOCK0_SHIFT 00000006

Symbol: MCG_S_LOCK0_SHIFT
   Definitions
      At line 938 in file MKL46Z4.s
   Uses
      None
Comment: MCG_S_LOCK0_SHIFT unused
MCG_S_LOLS_MASK 00000080

Symbol: MCG_S_LOLS_MASK
   Definitions
      At line 935 in file MKL46Z4.s
   Uses
      None
Comment: MCG_S_LOLS_MASK unused
MCG_S_LOLS_SHIFT 00000007



ARM Macro Assembler    Page 68 Alphabetic symbol ordering
Absolute symbols


Symbol: MCG_S_LOLS_SHIFT
   Definitions
      At line 936 in file MKL46Z4.s
   Uses
      None
Comment: MCG_S_LOLS_SHIFT unused
MCG_S_OFFSET 00000006

Symbol: MCG_S_OFFSET
   Definitions
      At line 797 in file MKL46Z4.s
   Uses
      At line 803 in file MKL46Z4.s
Comment: MCG_S_OFFSET used once
MCG_S_OSCINIT0_MASK 00000002

Symbol: MCG_S_OSCINIT0_MASK
   Definitions
      At line 945 in file MKL46Z4.s
   Uses
      None
Comment: MCG_S_OSCINIT0_MASK unused
MCG_S_OSCINIT0_SHIFT 00000001

Symbol: MCG_S_OSCINIT0_SHIFT
   Definitions
      At line 946 in file MKL46Z4.s
   Uses
      None
Comment: MCG_S_OSCINIT0_SHIFT unused
MCG_S_PLLST_MASK 00000020

Symbol: MCG_S_PLLST_MASK
   Definitions
      At line 939 in file MKL46Z4.s
   Uses
      None
Comment: MCG_S_PLLST_MASK unused
MCG_S_PLLST_SHIFT 00000005

Symbol: MCG_S_PLLST_SHIFT
   Definitions
      At line 940 in file MKL46Z4.s
   Uses
      None
Comment: MCG_S_PLLST_SHIFT unused
MCG_Vector 0000002B

Symbol: MCG_Vector
   Definitions
      At line 1162 in file MKL46Z4.s
   Uses
      None
Comment: MCG_Vector unused
NMI_Vector02 00000002

Symbol: NMI_Vector02
   Definitions



ARM Macro Assembler    Page 69 Alphabetic symbol ordering
Absolute symbols

      At line 1121 in file MKL46Z4.s
   Uses
      None
Comment: NMI_Vector02 unused
NUM_ENQD 00000011

Symbol: NUM_ENQD
   Definitions
      At line 27 in file Exercise13.s
   Uses
      At line 429 in file Exercise13.s
      At line 441 in file Exercise13.s
      At line 453 in file Exercise13.s
      At line 586 in file Exercise13.s
      At line 594 in file Exercise13.s
      At line 596 in file Exercise13.s
      At line 627 in file Exercise13.s
      At line 636 in file Exercise13.s
      At line 787 in file Exercise13.s

NVIC_BASE E000E100

Symbol: NVIC_BASE
   Definitions
      At line 954 in file MKL46Z4.s
   Uses
      At line 967 in file MKL46Z4.s
      At line 968 in file MKL46Z4.s
      At line 969 in file MKL46Z4.s
      At line 970 in file MKL46Z4.s
      At line 971 in file MKL46Z4.s
      At line 972 in file MKL46Z4.s
      At line 973 in file MKL46Z4.s
      At line 974 in file MKL46Z4.s
      At line 975 in file MKL46Z4.s
      At line 976 in file MKL46Z4.s
      At line 977 in file MKL46Z4.s
      At line 978 in file MKL46Z4.s

NVIC_ICER E000E180

Symbol: NVIC_ICER
   Definitions
      At line 968 in file MKL46Z4.s
   Uses
      None
Comment: NVIC_ICER unused
NVIC_ICER_OFFSET 00000080

Symbol: NVIC_ICER_OFFSET
   Definitions
      At line 956 in file MKL46Z4.s
   Uses
      At line 968 in file MKL46Z4.s
Comment: NVIC_ICER_OFFSET used once
NVIC_ICPR E000E280

Symbol: NVIC_ICPR
   Definitions



ARM Macro Assembler    Page 70 Alphabetic symbol ordering
Absolute symbols

      At line 970 in file MKL46Z4.s
   Uses
      None
Comment: NVIC_ICPR unused
NVIC_ICPR_OFFSET 00000180

Symbol: NVIC_ICPR_OFFSET
   Definitions
      At line 958 in file MKL46Z4.s
   Uses
      At line 970 in file MKL46Z4.s
Comment: NVIC_ICPR_OFFSET used once
NVIC_IPR0 E000E400

Symbol: NVIC_IPR0
   Definitions
      At line 971 in file MKL46Z4.s
   Uses
      At line 981 in file MKL46Z4.s
      At line 982 in file MKL46Z4.s
      At line 983 in file MKL46Z4.s
      At line 984 in file MKL46Z4.s

NVIC_IPR0_OFFSET 00000300

Symbol: NVIC_IPR0_OFFSET
   Definitions
      At line 959 in file MKL46Z4.s
   Uses
      At line 971 in file MKL46Z4.s
Comment: NVIC_IPR0_OFFSET used once
NVIC_IPR1 E000E404

Symbol: NVIC_IPR1
   Definitions
      At line 972 in file MKL46Z4.s
   Uses
      At line 985 in file MKL46Z4.s
      At line 986 in file MKL46Z4.s
      At line 987 in file MKL46Z4.s
      At line 988 in file MKL46Z4.s

NVIC_IPR1_OFFSET 00000304

Symbol: NVIC_IPR1_OFFSET
   Definitions
      At line 960 in file MKL46Z4.s
   Uses
      At line 972 in file MKL46Z4.s
Comment: NVIC_IPR1_OFFSET used once
NVIC_IPR2 E000E408

Symbol: NVIC_IPR2
   Definitions
      At line 973 in file MKL46Z4.s
   Uses
      At line 989 in file MKL46Z4.s
      At line 990 in file MKL46Z4.s
      At line 991 in file MKL46Z4.s



ARM Macro Assembler    Page 71 Alphabetic symbol ordering
Absolute symbols

      At line 992 in file MKL46Z4.s

NVIC_IPR2_OFFSET 00000308

Symbol: NVIC_IPR2_OFFSET
   Definitions
      At line 961 in file MKL46Z4.s
   Uses
      At line 973 in file MKL46Z4.s
Comment: NVIC_IPR2_OFFSET used once
NVIC_IPR3 E000E40C

Symbol: NVIC_IPR3
   Definitions
      At line 974 in file MKL46Z4.s
   Uses
      At line 993 in file MKL46Z4.s
      At line 994 in file MKL46Z4.s
      At line 995 in file MKL46Z4.s
      At line 996 in file MKL46Z4.s

NVIC_IPR3_OFFSET 0000030C

Symbol: NVIC_IPR3_OFFSET
   Definitions
      At line 962 in file MKL46Z4.s
   Uses
      At line 974 in file MKL46Z4.s
Comment: NVIC_IPR3_OFFSET used once
NVIC_IPR4 E000E410

Symbol: NVIC_IPR4
   Definitions
      At line 975 in file MKL46Z4.s
   Uses
      At line 997 in file MKL46Z4.s
      At line 998 in file MKL46Z4.s
      At line 999 in file MKL46Z4.s
      At line 1000 in file MKL46Z4.s

NVIC_IPR4_OFFSET 00000310

Symbol: NVIC_IPR4_OFFSET
   Definitions
      At line 963 in file MKL46Z4.s
   Uses
      At line 975 in file MKL46Z4.s
Comment: NVIC_IPR4_OFFSET used once
NVIC_IPR5 E000E414

Symbol: NVIC_IPR5
   Definitions
      At line 976 in file MKL46Z4.s
   Uses
      At line 1001 in file MKL46Z4.s
      At line 1002 in file MKL46Z4.s
      At line 1003 in file MKL46Z4.s
      At line 1004 in file MKL46Z4.s




ARM Macro Assembler    Page 72 Alphabetic symbol ordering
Absolute symbols

NVIC_IPR5_OFFSET 00000314

Symbol: NVIC_IPR5_OFFSET
   Definitions
      At line 964 in file MKL46Z4.s
   Uses
      At line 976 in file MKL46Z4.s
Comment: NVIC_IPR5_OFFSET used once
NVIC_IPR6 E000E418

Symbol: NVIC_IPR6
   Definitions
      At line 977 in file MKL46Z4.s
   Uses
      At line 1005 in file MKL46Z4.s
      At line 1006 in file MKL46Z4.s
      At line 1007 in file MKL46Z4.s
      At line 1008 in file MKL46Z4.s

NVIC_IPR6_OFFSET 00000318

Symbol: NVIC_IPR6_OFFSET
   Definitions
      At line 965 in file MKL46Z4.s
   Uses
      At line 977 in file MKL46Z4.s
Comment: NVIC_IPR6_OFFSET used once
NVIC_IPR7 E000E41C

Symbol: NVIC_IPR7
   Definitions
      At line 978 in file MKL46Z4.s
   Uses
      At line 1009 in file MKL46Z4.s
      At line 1010 in file MKL46Z4.s
      At line 1011 in file MKL46Z4.s
      At line 1012 in file MKL46Z4.s

NVIC_IPR7_OFFSET 0000031C

Symbol: NVIC_IPR7_OFFSET
   Definitions
      At line 966 in file MKL46Z4.s
   Uses
      At line 978 in file MKL46Z4.s
Comment: NVIC_IPR7_OFFSET used once
NVIC_ISER E000E100

Symbol: NVIC_ISER
   Definitions
      At line 967 in file MKL46Z4.s
   Uses
      At line 961 in file Exercise13.s
Comment: NVIC_ISER used once
NVIC_ISER_OFFSET 00000000

Symbol: NVIC_ISER_OFFSET
   Definitions
      At line 955 in file MKL46Z4.s



ARM Macro Assembler    Page 73 Alphabetic symbol ordering
Absolute symbols

   Uses
      At line 967 in file MKL46Z4.s
Comment: NVIC_ISER_OFFSET used once
NVIC_ISPR E000E200

Symbol: NVIC_ISPR
   Definitions
      At line 969 in file MKL46Z4.s
   Uses
      None
Comment: NVIC_ISPR unused
NVIC_ISPR_OFFSET 00000100

Symbol: NVIC_ISPR_OFFSET
   Definitions
      At line 957 in file MKL46Z4.s
   Uses
      At line 969 in file MKL46Z4.s
Comment: NVIC_ISPR_OFFSET used once
OUT_PTR 00000004

Symbol: OUT_PTR
   Definitions
      At line 23 in file Exercise13.s
   Uses
      At line 422 in file Exercise13.s
      At line 434 in file Exercise13.s
      At line 446 in file Exercise13.s
      At line 590 in file Exercise13.s
      At line 593 in file Exercise13.s
      At line 607 in file Exercise13.s

PIT_BASE 40037000

Symbol: PIT_BASE
   Definitions
      At line 1173 in file MKL46Z4.s
   Uses
      At line 1191 in file MKL46Z4.s
      At line 1192 in file MKL46Z4.s
      At line 1193 in file MKL46Z4.s
      At line 1194 in file MKL46Z4.s
      At line 1195 in file MKL46Z4.s
      At line 1196 in file MKL46Z4.s
      At line 1197 in file MKL46Z4.s
      At line 1198 in file MKL46Z4.s
      At line 1199 in file MKL46Z4.s
      At line 1200 in file MKL46Z4.s
      At line 1201 in file MKL46Z4.s
      At line 1066 in file Exercise13.s

PIT_CH0_BASE 40037100

Symbol: PIT_CH0_BASE
   Definitions
      At line 1174 in file MKL46Z4.s
   Uses
      At line 1069 in file Exercise13.s
      At line 1099 in file Exercise13.s



ARM Macro Assembler    Page 74 Alphabetic symbol ordering
Absolute symbols


PIT_CH1_BASE 40037110

Symbol: PIT_CH1_BASE
   Definitions
      At line 1175 in file MKL46Z4.s
   Uses
      None
Comment: PIT_CH1_BASE unused
PIT_CVAL0 40037104

Symbol: PIT_CVAL0
   Definitions
      At line 1195 in file MKL46Z4.s
   Uses
      None
Comment: PIT_CVAL0 unused
PIT_CVAL0_OFFSET 00000104

Symbol: PIT_CVAL0_OFFSET
   Definitions
      At line 1184 in file MKL46Z4.s
   Uses
      At line 1195 in file MKL46Z4.s
Comment: PIT_CVAL0_OFFSET used once
PIT_CVAL2 40037114

Symbol: PIT_CVAL2
   Definitions
      At line 1199 in file MKL46Z4.s
   Uses
      None
Comment: PIT_CVAL2 unused
PIT_CVAL2_OFFSET 00000114

Symbol: PIT_CVAL2_OFFSET
   Definitions
      At line 1188 in file MKL46Z4.s
   Uses
      At line 1199 in file MKL46Z4.s
Comment: PIT_CVAL2_OFFSET used once
PIT_CVAL_OFFSET 00000004

Symbol: PIT_CVAL_OFFSET
   Definitions
      At line 1177 in file MKL46Z4.s
   Uses
      None
Comment: PIT_CVAL_OFFSET unused
PIT_IPR E000E414

Symbol: PIT_IPR
   Definitions
      At line 1003 in file MKL46Z4.s
   Uses
      At line 971 in file Exercise13.s
Comment: PIT_IPR used once
PIT_IRQ 00000016




ARM Macro Assembler    Page 75 Alphabetic symbol ordering
Absolute symbols

Symbol: PIT_IRQ
   Definitions
      At line 1073 in file MKL46Z4.s
   Uses
      At line 1107 in file MKL46Z4.s
Comment: PIT_IRQ used once
PIT_IRQ_MASK 00400000

Symbol: PIT_IRQ_MASK
   Definitions
      At line 1107 in file MKL46Z4.s
   Uses
      At line 963 in file Exercise13.s
Comment: PIT_IRQ_MASK used once
PIT_IRQ_PRI 00000000

Symbol: PIT_IRQ_PRI
   Definitions
      At line 44 in file Exercise13.s
   Uses
      At line 972 in file Exercise13.s
Comment: PIT_IRQ_PRI used once
PIT_LDVAL0 40037100

Symbol: PIT_LDVAL0
   Definitions
      At line 1194 in file MKL46Z4.s
   Uses
      None
Comment: PIT_LDVAL0 unused
PIT_LDVAL0_OFFSET 00000100

Symbol: PIT_LDVAL0_OFFSET
   Definitions
      At line 1183 in file MKL46Z4.s
   Uses
      At line 1194 in file MKL46Z4.s
Comment: PIT_LDVAL0_OFFSET used once
PIT_LDVAL2 40037110

Symbol: PIT_LDVAL2
   Definitions
      At line 1198 in file MKL46Z4.s
   Uses
      None
Comment: PIT_LDVAL2 unused
PIT_LDVAL2_OFFSET 00000110

Symbol: PIT_LDVAL2_OFFSET
   Definitions
      At line 1187 in file MKL46Z4.s
   Uses
      At line 1198 in file MKL46Z4.s
Comment: PIT_LDVAL2_OFFSET used once
PIT_LDVAL_10ms 0003A97F

Symbol: PIT_LDVAL_10ms
   Definitions
      At line 42 in file Exercise13.s



ARM Macro Assembler    Page 76 Alphabetic symbol ordering
Absolute symbols

   Uses
      At line 1070 in file Exercise13.s
Comment: PIT_LDVAL_10ms used once
PIT_LDVAL_OFFSET 00000000

Symbol: PIT_LDVAL_OFFSET
   Definitions
      At line 1176 in file MKL46Z4.s
   Uses
      At line 1071 in file Exercise13.s
Comment: PIT_LDVAL_OFFSET used once
PIT_LTMR64H 400370E0

Symbol: PIT_LTMR64H
   Definitions
      At line 1192 in file MKL46Z4.s
   Uses
      None
Comment: PIT_LTMR64H unused
PIT_LTMR64H_OFFSET 000000E0

Symbol: PIT_LTMR64H_OFFSET
   Definitions
      At line 1181 in file MKL46Z4.s
   Uses
      At line 1192 in file MKL46Z4.s
Comment: PIT_LTMR64H_OFFSET used once
PIT_LTMR64L 400370E4

Symbol: PIT_LTMR64L
   Definitions
      At line 1193 in file MKL46Z4.s
   Uses
      None
Comment: PIT_LTMR64L unused
PIT_LTMR64L_OFFSET 000000E4

Symbol: PIT_LTMR64L_OFFSET
   Definitions
      At line 1182 in file MKL46Z4.s
   Uses
      At line 1193 in file MKL46Z4.s
Comment: PIT_LTMR64L_OFFSET used once
PIT_MCR 40037000

Symbol: PIT_MCR
   Definitions
      At line 1191 in file MKL46Z4.s
   Uses
      None
Comment: PIT_MCR unused
PIT_MCR_EN_FRZ 00000001

Symbol: PIT_MCR_EN_FRZ
   Definitions
      At line 41 in file Exercise13.s
   Uses
      At line 1067 in file Exercise13.s
Comment: PIT_MCR_EN_FRZ used once



ARM Macro Assembler    Page 77 Alphabetic symbol ordering
Absolute symbols

PIT_MCR_FRZ_MASK 00000001

Symbol: PIT_MCR_FRZ_MASK
   Definitions
      At line 1230 in file MKL46Z4.s
   Uses
      At line 41 in file Exercise13.s
Comment: PIT_MCR_FRZ_MASK used once
PIT_MCR_FRZ_SHIFT 00000000

Symbol: PIT_MCR_FRZ_SHIFT
   Definitions
      At line 1231 in file MKL46Z4.s
   Uses
      None
Comment: PIT_MCR_FRZ_SHIFT unused
PIT_MCR_MDIS_MASK 00000002

Symbol: PIT_MCR_MDIS_MASK
   Definitions
      At line 1228 in file MKL46Z4.s
   Uses
      None
Comment: PIT_MCR_MDIS_MASK unused
PIT_MCR_MDIS_SHIFT 00000001

Symbol: PIT_MCR_MDIS_SHIFT
   Definitions
      At line 1229 in file MKL46Z4.s
   Uses
      None
Comment: PIT_MCR_MDIS_SHIFT unused
PIT_MCR_OFFSET 00000000

Symbol: PIT_MCR_OFFSET
   Definitions
      At line 1180 in file MKL46Z4.s
   Uses
      At line 1191 in file MKL46Z4.s
      At line 1068 in file Exercise13.s

PIT_PRI_POS 00000016

Symbol: PIT_PRI_POS
   Definitions
      At line 1039 in file MKL46Z4.s
   Uses
      At line 972 in file Exercise13.s
Comment: PIT_PRI_POS used once
PIT_TCTRL0 40037108

Symbol: PIT_TCTRL0
   Definitions
      At line 1196 in file MKL46Z4.s
   Uses
      None
Comment: PIT_TCTRL0 unused
PIT_TCTRL0_OFFSET 00000108




ARM Macro Assembler    Page 78 Alphabetic symbol ordering
Absolute symbols

Symbol: PIT_TCTRL0_OFFSET
   Definitions
      At line 1185 in file MKL46Z4.s
   Uses
      At line 1196 in file MKL46Z4.s
Comment: PIT_TCTRL0_OFFSET used once
PIT_TCTRL2 40037118

Symbol: PIT_TCTRL2
   Definitions
      At line 1200 in file MKL46Z4.s
   Uses
      None
Comment: PIT_TCTRL2 unused
PIT_TCTRL2_OFFSET 00000118

Symbol: PIT_TCTRL2_OFFSET
   Definitions
      At line 1189 in file MKL46Z4.s
   Uses
      At line 1200 in file MKL46Z4.s
Comment: PIT_TCTRL2_OFFSET used once
PIT_TCTRL_CHN_MASK 00000004

Symbol: PIT_TCTRL_CHN_MASK
   Definitions
      At line 1241 in file MKL46Z4.s
   Uses
      None
Comment: PIT_TCTRL_CHN_MASK unused
PIT_TCTRL_CHN_SHIFT 00000002

Symbol: PIT_TCTRL_CHN_SHIFT
   Definitions
      At line 1242 in file MKL46Z4.s
   Uses
      None
Comment: PIT_TCTRL_CHN_SHIFT unused
PIT_TCTRL_CH_IE 00000003

Symbol: PIT_TCTRL_CH_IE
   Definitions
      At line 43 in file Exercise13.s
   Uses
      At line 1072 in file Exercise13.s
Comment: PIT_TCTRL_CH_IE used once
PIT_TCTRL_OFFSET 00000008

Symbol: PIT_TCTRL_OFFSET
   Definitions
      At line 1178 in file MKL46Z4.s
   Uses
      At line 1073 in file Exercise13.s
Comment: PIT_TCTRL_OFFSET used once
PIT_TCTRL_TEN_MASK 00000001

Symbol: PIT_TCTRL_TEN_MASK
   Definitions
      At line 1245 in file MKL46Z4.s



ARM Macro Assembler    Page 79 Alphabetic symbol ordering
Absolute symbols

   Uses
      At line 43 in file Exercise13.s
Comment: PIT_TCTRL_TEN_MASK used once
PIT_TCTRL_TEN_SHIFT 00000000

Symbol: PIT_TCTRL_TEN_SHIFT
   Definitions
      At line 1246 in file MKL46Z4.s
   Uses
      None
Comment: PIT_TCTRL_TEN_SHIFT unused
PIT_TCTRL_TIE_MASK 00000002

Symbol: PIT_TCTRL_TIE_MASK
   Definitions
      At line 1243 in file MKL46Z4.s
   Uses
      At line 43 in file Exercise13.s
Comment: PIT_TCTRL_TIE_MASK used once
PIT_TCTRL_TIE_SHIFT 00000001

Symbol: PIT_TCTRL_TIE_SHIFT
   Definitions
      At line 1244 in file MKL46Z4.s
   Uses
      None
Comment: PIT_TCTRL_TIE_SHIFT unused
PIT_TFLG0 4003710C

Symbol: PIT_TFLG0
   Definitions
      At line 1197 in file MKL46Z4.s
   Uses
      None
Comment: PIT_TFLG0 unused
PIT_TFLG0_OFFSET 0000010C

Symbol: PIT_TFLG0_OFFSET
   Definitions
      At line 1186 in file MKL46Z4.s
   Uses
      At line 1197 in file MKL46Z4.s
Comment: PIT_TFLG0_OFFSET used once
PIT_TFLG2 4003711C

Symbol: PIT_TFLG2
   Definitions
      At line 1201 in file MKL46Z4.s
   Uses
      None
Comment: PIT_TFLG2 unused
PIT_TFLG2_OFFSET 0000011C

Symbol: PIT_TFLG2_OFFSET
   Definitions
      At line 1190 in file MKL46Z4.s
   Uses
      At line 1201 in file MKL46Z4.s
Comment: PIT_TFLG2_OFFSET used once



ARM Macro Assembler    Page 80 Alphabetic symbol ordering
Absolute symbols

PIT_TFLG_OFFSET 0000000C

Symbol: PIT_TFLG_OFFSET
   Definitions
      At line 1179 in file MKL46Z4.s
   Uses
      At line 1101 in file Exercise13.s
Comment: PIT_TFLG_OFFSET used once
PIT_TFLG_TIF_MASK 00000001

Symbol: PIT_TFLG_TIF_MASK
   Definitions
      At line 1252 in file MKL46Z4.s
   Uses
      At line 1100 in file Exercise13.s
Comment: PIT_TFLG_TIF_MASK used once
PIT_TFLG_TIF_SHIFT 00000000

Symbol: PIT_TFLG_TIF_SHIFT
   Definitions
      At line 1253 in file MKL46Z4.s
   Uses
      None
Comment: PIT_TFLG_TIF_SHIFT unused
PIT_Vector 00000026

Symbol: PIT_Vector
   Definitions
      At line 1157 in file MKL46Z4.s
   Uses
      None
Comment: PIT_Vector unused
PMC_IPR E000E404

Symbol: PMC_IPR
   Definitions
      At line 987 in file MKL46Z4.s
   Uses
      None
Comment: PMC_IPR unused
PMC_IRQ 00000006

Symbol: PMC_IRQ
   Definitions
      At line 1057 in file MKL46Z4.s
   Uses
      At line 1091 in file MKL46Z4.s
Comment: PMC_IRQ used once
PMC_IRQ_MASK 00000040

Symbol: PMC_IRQ_MASK
   Definitions
      At line 1091 in file MKL46Z4.s
   Uses
      None
Comment: PMC_IRQ_MASK unused
PMC_PRI_POS 00000016

Symbol: PMC_PRI_POS



ARM Macro Assembler    Page 81 Alphabetic symbol ordering
Absolute symbols

   Definitions
      At line 1023 in file MKL46Z4.s
   Uses
      None
Comment: PMC_PRI_POS unused
PMC_Vector 00000016

Symbol: PMC_Vector
   Definitions
      At line 1141 in file MKL46Z4.s
   Uses
      None
Comment: PMC_Vector unused
PORTA_BASE 40049000

Symbol: PORTA_BASE
   Definitions
      At line 1315 in file MKL46Z4.s
   Uses
      At line 1351 in file MKL46Z4.s
      At line 1352 in file MKL46Z4.s
      At line 1353 in file MKL46Z4.s
      At line 1354 in file MKL46Z4.s
      At line 1355 in file MKL46Z4.s
      At line 1356 in file MKL46Z4.s
      At line 1357 in file MKL46Z4.s
      At line 1358 in file MKL46Z4.s
      At line 1359 in file MKL46Z4.s
      At line 1360 in file MKL46Z4.s
      At line 1361 in file MKL46Z4.s
      At line 1362 in file MKL46Z4.s
      At line 1363 in file MKL46Z4.s
      At line 1364 in file MKL46Z4.s
      At line 1365 in file MKL46Z4.s
      At line 1366 in file MKL46Z4.s
      At line 1367 in file MKL46Z4.s
      At line 1368 in file MKL46Z4.s
      At line 1369 in file MKL46Z4.s
      At line 1370 in file MKL46Z4.s
      At line 1371 in file MKL46Z4.s
      At line 1372 in file MKL46Z4.s
      At line 1373 in file MKL46Z4.s
      At line 1374 in file MKL46Z4.s
      At line 1375 in file MKL46Z4.s
      At line 1376 in file MKL46Z4.s
      At line 1377 in file MKL46Z4.s
      At line 1378 in file MKL46Z4.s
      At line 1379 in file MKL46Z4.s
      At line 1380 in file MKL46Z4.s
      At line 1381 in file MKL46Z4.s
      At line 1382 in file MKL46Z4.s
      At line 1383 in file MKL46Z4.s
      At line 1384 in file MKL46Z4.s
      At line 1385 in file MKL46Z4.s

PORTA_GPCHR 40049084

Symbol: PORTA_GPCHR
   Definitions



ARM Macro Assembler    Page 82 Alphabetic symbol ordering
Absolute symbols

      At line 1384 in file MKL46Z4.s
   Uses
      None
Comment: PORTA_GPCHR unused
PORTA_GPCHR_OFFSET 00000084

Symbol: PORTA_GPCHR_OFFSET
   Definitions
      At line 1349 in file MKL46Z4.s
   Uses
      At line 1384 in file MKL46Z4.s
Comment: PORTA_GPCHR_OFFSET used once
PORTA_GPCLR 40049080

Symbol: PORTA_GPCLR
   Definitions
      At line 1383 in file MKL46Z4.s
   Uses
      None
Comment: PORTA_GPCLR unused
PORTA_GPCLR_OFFSET 00000080

Symbol: PORTA_GPCLR_OFFSET
   Definitions
      At line 1348 in file MKL46Z4.s
   Uses
      At line 1383 in file MKL46Z4.s
Comment: PORTA_GPCLR_OFFSET used once
PORTA_IPR E000E41C

Symbol: PORTA_IPR
   Definitions
      At line 1011 in file MKL46Z4.s
   Uses
      None
Comment: PORTA_IPR unused
PORTA_IRQ 0000001E

Symbol: PORTA_IRQ
   Definitions
      At line 1081 in file MKL46Z4.s
   Uses
      At line 1115 in file MKL46Z4.s
Comment: PORTA_IRQ used once
PORTA_IRQ_MASK 40000000

Symbol: PORTA_IRQ_MASK
   Definitions
      At line 1115 in file MKL46Z4.s
   Uses
      None
Comment: PORTA_IRQ_MASK unused
PORTA_ISFR 400490A0

Symbol: PORTA_ISFR
   Definitions
      At line 1385 in file MKL46Z4.s
   Uses
      None



ARM Macro Assembler    Page 83 Alphabetic symbol ordering
Absolute symbols

Comment: PORTA_ISFR unused
PORTA_ISFR_OFFSET 000000A0

Symbol: PORTA_ISFR_OFFSET
   Definitions
      At line 1350 in file MKL46Z4.s
   Uses
      At line 1385 in file MKL46Z4.s
Comment: PORTA_ISFR_OFFSET used once
PORTA_PCR0 40049000

Symbol: PORTA_PCR0
   Definitions
      At line 1351 in file MKL46Z4.s
   Uses
      None
Comment: PORTA_PCR0 unused
PORTA_PCR0_OFFSET 00000000

Symbol: PORTA_PCR0_OFFSET
   Definitions
      At line 1316 in file MKL46Z4.s
   Uses
      At line 1351 in file MKL46Z4.s
Comment: PORTA_PCR0_OFFSET used once
PORTA_PCR1 40049004

Symbol: PORTA_PCR1
   Definitions
      At line 1352 in file MKL46Z4.s
   Uses
      None
Comment: PORTA_PCR1 unused
PORTA_PCR10 40049028

Symbol: PORTA_PCR10
   Definitions
      At line 1361 in file MKL46Z4.s
   Uses
      None
Comment: PORTA_PCR10 unused
PORTA_PCR10_OFFSET 00000028

Symbol: PORTA_PCR10_OFFSET
   Definitions
      At line 1326 in file MKL46Z4.s
   Uses
      At line 1361 in file MKL46Z4.s
Comment: PORTA_PCR10_OFFSET used once
PORTA_PCR11 4004902C

Symbol: PORTA_PCR11
   Definitions
      At line 1362 in file MKL46Z4.s
   Uses
      None
Comment: PORTA_PCR11 unused
PORTA_PCR11_OFFSET 0000002C




ARM Macro Assembler    Page 84 Alphabetic symbol ordering
Absolute symbols

Symbol: PORTA_PCR11_OFFSET
   Definitions
      At line 1327 in file MKL46Z4.s
   Uses
      At line 1362 in file MKL46Z4.s
Comment: PORTA_PCR11_OFFSET used once
PORTA_PCR12 40049030

Symbol: PORTA_PCR12
   Definitions
      At line 1363 in file MKL46Z4.s
   Uses
      None
Comment: PORTA_PCR12 unused
PORTA_PCR12_OFFSET 00000030

Symbol: PORTA_PCR12_OFFSET
   Definitions
      At line 1328 in file MKL46Z4.s
   Uses
      At line 1363 in file MKL46Z4.s
Comment: PORTA_PCR12_OFFSET used once
PORTA_PCR13 40049034

Symbol: PORTA_PCR13
   Definitions
      At line 1364 in file MKL46Z4.s
   Uses
      None
Comment: PORTA_PCR13 unused
PORTA_PCR13_OFFSET 00000034

Symbol: PORTA_PCR13_OFFSET
   Definitions
      At line 1329 in file MKL46Z4.s
   Uses
      At line 1364 in file MKL46Z4.s
Comment: PORTA_PCR13_OFFSET used once
PORTA_PCR14 40049038

Symbol: PORTA_PCR14
   Definitions
      At line 1365 in file MKL46Z4.s
   Uses
      None
Comment: PORTA_PCR14 unused
PORTA_PCR14_OFFSET 00000038

Symbol: PORTA_PCR14_OFFSET
   Definitions
      At line 1330 in file MKL46Z4.s
   Uses
      At line 1365 in file MKL46Z4.s
Comment: PORTA_PCR14_OFFSET used once
PORTA_PCR15 4004903C

Symbol: PORTA_PCR15
   Definitions
      At line 1366 in file MKL46Z4.s



ARM Macro Assembler    Page 85 Alphabetic symbol ordering
Absolute symbols

   Uses
      None
Comment: PORTA_PCR15 unused
PORTA_PCR15_OFFSET 0000003C

Symbol: PORTA_PCR15_OFFSET
   Definitions
      At line 1331 in file MKL46Z4.s
   Uses
      At line 1366 in file MKL46Z4.s
Comment: PORTA_PCR15_OFFSET used once
PORTA_PCR16 40049040

Symbol: PORTA_PCR16
   Definitions
      At line 1367 in file MKL46Z4.s
   Uses
      None
Comment: PORTA_PCR16 unused
PORTA_PCR16_OFFSET 00000040

Symbol: PORTA_PCR16_OFFSET
   Definitions
      At line 1332 in file MKL46Z4.s
   Uses
      At line 1367 in file MKL46Z4.s
Comment: PORTA_PCR16_OFFSET used once
PORTA_PCR17 40049044

Symbol: PORTA_PCR17
   Definitions
      At line 1368 in file MKL46Z4.s
   Uses
      None
Comment: PORTA_PCR17 unused
PORTA_PCR17_OFFSET 00000044

Symbol: PORTA_PCR17_OFFSET
   Definitions
      At line 1333 in file MKL46Z4.s
   Uses
      At line 1368 in file MKL46Z4.s
Comment: PORTA_PCR17_OFFSET used once
PORTA_PCR18 40049048

Symbol: PORTA_PCR18
   Definitions
      At line 1369 in file MKL46Z4.s
   Uses
      None
Comment: PORTA_PCR18 unused
PORTA_PCR18_OFFSET 00000048

Symbol: PORTA_PCR18_OFFSET
   Definitions
      At line 1334 in file MKL46Z4.s
   Uses
      At line 1369 in file MKL46Z4.s
Comment: PORTA_PCR18_OFFSET used once



ARM Macro Assembler    Page 86 Alphabetic symbol ordering
Absolute symbols

PORTA_PCR19 4004904C

Symbol: PORTA_PCR19
   Definitions
      At line 1370 in file MKL46Z4.s
   Uses
      None
Comment: PORTA_PCR19 unused
PORTA_PCR19_OFFSET 0000004C

Symbol: PORTA_PCR19_OFFSET
   Definitions
      At line 1335 in file MKL46Z4.s
   Uses
      At line 1370 in file MKL46Z4.s
Comment: PORTA_PCR19_OFFSET used once
PORTA_PCR1_OFFSET 00000004

Symbol: PORTA_PCR1_OFFSET
   Definitions
      At line 1317 in file MKL46Z4.s
   Uses
      At line 1352 in file MKL46Z4.s
Comment: PORTA_PCR1_OFFSET used once
PORTA_PCR2 40049008

Symbol: PORTA_PCR2
   Definitions
      At line 1353 in file MKL46Z4.s
   Uses
      None
Comment: PORTA_PCR2 unused
PORTA_PCR20 40049050

Symbol: PORTA_PCR20
   Definitions
      At line 1371 in file MKL46Z4.s
   Uses
      None
Comment: PORTA_PCR20 unused
PORTA_PCR20_OFFSET 00000050

Symbol: PORTA_PCR20_OFFSET
   Definitions
      At line 1336 in file MKL46Z4.s
   Uses
      At line 1371 in file MKL46Z4.s
Comment: PORTA_PCR20_OFFSET used once
PORTA_PCR21 40049054

Symbol: PORTA_PCR21
   Definitions
      At line 1372 in file MKL46Z4.s
   Uses
      None
Comment: PORTA_PCR21 unused
PORTA_PCR21_OFFSET 00000054

Symbol: PORTA_PCR21_OFFSET



ARM Macro Assembler    Page 87 Alphabetic symbol ordering
Absolute symbols

   Definitions
      At line 1337 in file MKL46Z4.s
   Uses
      At line 1372 in file MKL46Z4.s
Comment: PORTA_PCR21_OFFSET used once
PORTA_PCR22 40049058

Symbol: PORTA_PCR22
   Definitions
      At line 1373 in file MKL46Z4.s
   Uses
      None
Comment: PORTA_PCR22 unused
PORTA_PCR22_OFFSET 00000058

Symbol: PORTA_PCR22_OFFSET
   Definitions
      At line 1338 in file MKL46Z4.s
   Uses
      At line 1373 in file MKL46Z4.s
Comment: PORTA_PCR22_OFFSET used once
PORTA_PCR23 4004905C

Symbol: PORTA_PCR23
   Definitions
      At line 1374 in file MKL46Z4.s
   Uses
      None
Comment: PORTA_PCR23 unused
PORTA_PCR23_OFFSET 0000005C

Symbol: PORTA_PCR23_OFFSET
   Definitions
      At line 1339 in file MKL46Z4.s
   Uses
      At line 1374 in file MKL46Z4.s
Comment: PORTA_PCR23_OFFSET used once
PORTA_PCR24 40049060

Symbol: PORTA_PCR24
   Definitions
      At line 1375 in file MKL46Z4.s
   Uses
      None
Comment: PORTA_PCR24 unused
PORTA_PCR24_OFFSET 00000060

Symbol: PORTA_PCR24_OFFSET
   Definitions
      At line 1340 in file MKL46Z4.s
   Uses
      At line 1375 in file MKL46Z4.s
Comment: PORTA_PCR24_OFFSET used once
PORTA_PCR25 40049064

Symbol: PORTA_PCR25
   Definitions
      At line 1376 in file MKL46Z4.s
   Uses



ARM Macro Assembler    Page 88 Alphabetic symbol ordering
Absolute symbols

      None
Comment: PORTA_PCR25 unused
PORTA_PCR25_OFFSET 00000064

Symbol: PORTA_PCR25_OFFSET
   Definitions
      At line 1341 in file MKL46Z4.s
   Uses
      At line 1376 in file MKL46Z4.s
Comment: PORTA_PCR25_OFFSET used once
PORTA_PCR26 40049068

Symbol: PORTA_PCR26
   Definitions
      At line 1377 in file MKL46Z4.s
   Uses
      None
Comment: PORTA_PCR26 unused
PORTA_PCR26_OFFSET 00000068

Symbol: PORTA_PCR26_OFFSET
   Definitions
      At line 1342 in file MKL46Z4.s
   Uses
      At line 1377 in file MKL46Z4.s
Comment: PORTA_PCR26_OFFSET used once
PORTA_PCR27 4004906C

Symbol: PORTA_PCR27
   Definitions
      At line 1378 in file MKL46Z4.s
   Uses
      None
Comment: PORTA_PCR27 unused
PORTA_PCR27_OFFSET 0000006C

Symbol: PORTA_PCR27_OFFSET
   Definitions
      At line 1343 in file MKL46Z4.s
   Uses
      At line 1378 in file MKL46Z4.s
Comment: PORTA_PCR27_OFFSET used once
PORTA_PCR28 40049070

Symbol: PORTA_PCR28
   Definitions
      At line 1379 in file MKL46Z4.s
   Uses
      None
Comment: PORTA_PCR28 unused
PORTA_PCR28_OFFSET 00000070

Symbol: PORTA_PCR28_OFFSET
   Definitions
      At line 1344 in file MKL46Z4.s
   Uses
      At line 1379 in file MKL46Z4.s
Comment: PORTA_PCR28_OFFSET used once
PORTA_PCR29 40049074



ARM Macro Assembler    Page 89 Alphabetic symbol ordering
Absolute symbols


Symbol: PORTA_PCR29
   Definitions
      At line 1380 in file MKL46Z4.s
   Uses
      None
Comment: PORTA_PCR29 unused
PORTA_PCR29_OFFSET 00000074

Symbol: PORTA_PCR29_OFFSET
   Definitions
      At line 1345 in file MKL46Z4.s
   Uses
      At line 1380 in file MKL46Z4.s
Comment: PORTA_PCR29_OFFSET used once
PORTA_PCR2_OFFSET 00000008

Symbol: PORTA_PCR2_OFFSET
   Definitions
      At line 1318 in file MKL46Z4.s
   Uses
      At line 1353 in file MKL46Z4.s
Comment: PORTA_PCR2_OFFSET used once
PORTA_PCR3 4004900C

Symbol: PORTA_PCR3
   Definitions
      At line 1354 in file MKL46Z4.s
   Uses
      None
Comment: PORTA_PCR3 unused
PORTA_PCR30 40049078

Symbol: PORTA_PCR30
   Definitions
      At line 1381 in file MKL46Z4.s
   Uses
      None
Comment: PORTA_PCR30 unused
PORTA_PCR30_OFFSET 00000078

Symbol: PORTA_PCR30_OFFSET
   Definitions
      At line 1346 in file MKL46Z4.s
   Uses
      At line 1381 in file MKL46Z4.s
Comment: PORTA_PCR30_OFFSET used once
PORTA_PCR31 4004907C

Symbol: PORTA_PCR31
   Definitions
      At line 1382 in file MKL46Z4.s
   Uses
      None
Comment: PORTA_PCR31 unused
PORTA_PCR31_OFFSET 0000007C

Symbol: PORTA_PCR31_OFFSET
   Definitions



ARM Macro Assembler    Page 90 Alphabetic symbol ordering
Absolute symbols

      At line 1347 in file MKL46Z4.s
   Uses
      At line 1382 in file MKL46Z4.s
Comment: PORTA_PCR31_OFFSET used once
PORTA_PCR3_OFFSET 0000000C

Symbol: PORTA_PCR3_OFFSET
   Definitions
      At line 1319 in file MKL46Z4.s
   Uses
      At line 1354 in file MKL46Z4.s
Comment: PORTA_PCR3_OFFSET used once
PORTA_PCR4 40049010

Symbol: PORTA_PCR4
   Definitions
      At line 1355 in file MKL46Z4.s
   Uses
      None
Comment: PORTA_PCR4 unused
PORTA_PCR4_OFFSET 00000010

Symbol: PORTA_PCR4_OFFSET
   Definitions
      At line 1320 in file MKL46Z4.s
   Uses
      At line 1355 in file MKL46Z4.s
Comment: PORTA_PCR4_OFFSET used once
PORTA_PCR5 40049014

Symbol: PORTA_PCR5
   Definitions
      At line 1356 in file MKL46Z4.s
   Uses
      None
Comment: PORTA_PCR5 unused
PORTA_PCR5_OFFSET 00000014

Symbol: PORTA_PCR5_OFFSET
   Definitions
      At line 1321 in file MKL46Z4.s
   Uses
      At line 1356 in file MKL46Z4.s
Comment: PORTA_PCR5_OFFSET used once
PORTA_PCR6 40049018

Symbol: PORTA_PCR6
   Definitions
      At line 1357 in file MKL46Z4.s
   Uses
      None
Comment: PORTA_PCR6 unused
PORTA_PCR6_OFFSET 00000018

Symbol: PORTA_PCR6_OFFSET
   Definitions
      At line 1322 in file MKL46Z4.s
   Uses
      At line 1357 in file MKL46Z4.s



ARM Macro Assembler    Page 91 Alphabetic symbol ordering
Absolute symbols

Comment: PORTA_PCR6_OFFSET used once
PORTA_PCR7 4004901C

Symbol: PORTA_PCR7
   Definitions
      At line 1358 in file MKL46Z4.s
   Uses
      None
Comment: PORTA_PCR7 unused
PORTA_PCR7_OFFSET 0000001C

Symbol: PORTA_PCR7_OFFSET
   Definitions
      At line 1323 in file MKL46Z4.s
   Uses
      At line 1358 in file MKL46Z4.s
Comment: PORTA_PCR7_OFFSET used once
PORTA_PCR8 40049020

Symbol: PORTA_PCR8
   Definitions
      At line 1359 in file MKL46Z4.s
   Uses
      None
Comment: PORTA_PCR8 unused
PORTA_PCR8_OFFSET 00000020

Symbol: PORTA_PCR8_OFFSET
   Definitions
      At line 1324 in file MKL46Z4.s
   Uses
      At line 1359 in file MKL46Z4.s
Comment: PORTA_PCR8_OFFSET used once
PORTA_PCR9 40049024

Symbol: PORTA_PCR9
   Definitions
      At line 1360 in file MKL46Z4.s
   Uses
      None
Comment: PORTA_PCR9 unused
PORTA_PCR9_OFFSET 00000024

Symbol: PORTA_PCR9_OFFSET
   Definitions
      At line 1325 in file MKL46Z4.s
   Uses
      At line 1360 in file MKL46Z4.s
Comment: PORTA_PCR9_OFFSET used once
PORTA_PRI_POS 00000016

Symbol: PORTA_PRI_POS
   Definitions
      At line 1047 in file MKL46Z4.s
   Uses
      None
Comment: PORTA_PRI_POS unused
PORTA_Vector 0000002E




ARM Macro Assembler    Page 92 Alphabetic symbol ordering
Absolute symbols

Symbol: PORTA_Vector
   Definitions
      At line 1165 in file MKL46Z4.s
   Uses
      None
Comment: PORTA_Vector unused
PORTB_BASE 4004A000

Symbol: PORTB_BASE
   Definitions
      At line 1388 in file MKL46Z4.s
   Uses
      At line 1424 in file MKL46Z4.s
      At line 1425 in file MKL46Z4.s
      At line 1426 in file MKL46Z4.s
      At line 1427 in file MKL46Z4.s
      At line 1428 in file MKL46Z4.s
      At line 1429 in file MKL46Z4.s
      At line 1430 in file MKL46Z4.s
      At line 1431 in file MKL46Z4.s
      At line 1432 in file MKL46Z4.s
      At line 1433 in file MKL46Z4.s
      At line 1434 in file MKL46Z4.s
      At line 1435 in file MKL46Z4.s
      At line 1436 in file MKL46Z4.s
      At line 1437 in file MKL46Z4.s
      At line 1438 in file MKL46Z4.s
      At line 1439 in file MKL46Z4.s
      At line 1440 in file MKL46Z4.s
      At line 1441 in file MKL46Z4.s
      At line 1442 in file MKL46Z4.s
      At line 1443 in file MKL46Z4.s
      At line 1444 in file MKL46Z4.s
      At line 1445 in file MKL46Z4.s
      At line 1446 in file MKL46Z4.s
      At line 1447 in file MKL46Z4.s
      At line 1448 in file MKL46Z4.s
      At line 1449 in file MKL46Z4.s
      At line 1450 in file MKL46Z4.s
      At line 1451 in file MKL46Z4.s
      At line 1452 in file MKL46Z4.s
      At line 1453 in file MKL46Z4.s
      At line 1454 in file MKL46Z4.s
      At line 1455 in file MKL46Z4.s
      At line 1456 in file MKL46Z4.s
      At line 1457 in file MKL46Z4.s
      At line 1458 in file MKL46Z4.s

PORTB_GPCHR 4004A084

Symbol: PORTB_GPCHR
   Definitions
      At line 1457 in file MKL46Z4.s
   Uses
      None
Comment: PORTB_GPCHR unused
PORTB_GPCHR_OFFSET 00000084

Symbol: PORTB_GPCHR_OFFSET



ARM Macro Assembler    Page 93 Alphabetic symbol ordering
Absolute symbols

   Definitions
      At line 1422 in file MKL46Z4.s
   Uses
      At line 1457 in file MKL46Z4.s
Comment: PORTB_GPCHR_OFFSET used once
PORTB_GPCLR 4004A080

Symbol: PORTB_GPCLR
   Definitions
      At line 1456 in file MKL46Z4.s
   Uses
      None
Comment: PORTB_GPCLR unused
PORTB_GPCLR_OFFSET 00000080

Symbol: PORTB_GPCLR_OFFSET
   Definitions
      At line 1421 in file MKL46Z4.s
   Uses
      At line 1456 in file MKL46Z4.s
Comment: PORTB_GPCLR_OFFSET used once
PORTB_ISFR 4004A0A0

Symbol: PORTB_ISFR
   Definitions
      At line 1458 in file MKL46Z4.s
   Uses
      None
Comment: PORTB_ISFR unused
PORTB_ISFR_OFFSET 000000A0

Symbol: PORTB_ISFR_OFFSET
   Definitions
      At line 1423 in file MKL46Z4.s
   Uses
      At line 1458 in file MKL46Z4.s
Comment: PORTB_ISFR_OFFSET used once
PORTB_PCR0 4004A000

Symbol: PORTB_PCR0
   Definitions
      At line 1424 in file MKL46Z4.s
   Uses
      None
Comment: PORTB_PCR0 unused
PORTB_PCR0_OFFSET 00000000

Symbol: PORTB_PCR0_OFFSET
   Definitions
      At line 1389 in file MKL46Z4.s
   Uses
      At line 1424 in file MKL46Z4.s
Comment: PORTB_PCR0_OFFSET used once
PORTB_PCR1 4004A004

Symbol: PORTB_PCR1
   Definitions
      At line 1425 in file MKL46Z4.s
   Uses



ARM Macro Assembler    Page 94 Alphabetic symbol ordering
Absolute symbols

      None
Comment: PORTB_PCR1 unused
PORTB_PCR10 4004A028

Symbol: PORTB_PCR10
   Definitions
      At line 1434 in file MKL46Z4.s
   Uses
      None
Comment: PORTB_PCR10 unused
PORTB_PCR10_OFFSET 00000028

Symbol: PORTB_PCR10_OFFSET
   Definitions
      At line 1399 in file MKL46Z4.s
   Uses
      At line 1434 in file MKL46Z4.s
Comment: PORTB_PCR10_OFFSET used once
PORTB_PCR11 4004A02C

Symbol: PORTB_PCR11
   Definitions
      At line 1435 in file MKL46Z4.s
   Uses
      None
Comment: PORTB_PCR11 unused
PORTB_PCR11_OFFSET 0000002C

Symbol: PORTB_PCR11_OFFSET
   Definitions
      At line 1400 in file MKL46Z4.s
   Uses
      At line 1435 in file MKL46Z4.s
Comment: PORTB_PCR11_OFFSET used once
PORTB_PCR12 4004A030

Symbol: PORTB_PCR12
   Definitions
      At line 1436 in file MKL46Z4.s
   Uses
      None
Comment: PORTB_PCR12 unused
PORTB_PCR12_OFFSET 00000030

Symbol: PORTB_PCR12_OFFSET
   Definitions
      At line 1401 in file MKL46Z4.s
   Uses
      At line 1436 in file MKL46Z4.s
Comment: PORTB_PCR12_OFFSET used once
PORTB_PCR13 4004A034

Symbol: PORTB_PCR13
   Definitions
      At line 1437 in file MKL46Z4.s
   Uses
      None
Comment: PORTB_PCR13 unused
PORTB_PCR13_OFFSET 00000034



ARM Macro Assembler    Page 95 Alphabetic symbol ordering
Absolute symbols


Symbol: PORTB_PCR13_OFFSET
   Definitions
      At line 1402 in file MKL46Z4.s
   Uses
      At line 1437 in file MKL46Z4.s
Comment: PORTB_PCR13_OFFSET used once
PORTB_PCR14 4004A038

Symbol: PORTB_PCR14
   Definitions
      At line 1438 in file MKL46Z4.s
   Uses
      None
Comment: PORTB_PCR14 unused
PORTB_PCR14_OFFSET 00000038

Symbol: PORTB_PCR14_OFFSET
   Definitions
      At line 1403 in file MKL46Z4.s
   Uses
      At line 1438 in file MKL46Z4.s
Comment: PORTB_PCR14_OFFSET used once
PORTB_PCR15 4004A03C

Symbol: PORTB_PCR15
   Definitions
      At line 1439 in file MKL46Z4.s
   Uses
      None
Comment: PORTB_PCR15 unused
PORTB_PCR15_OFFSET 0000003C

Symbol: PORTB_PCR15_OFFSET
   Definitions
      At line 1404 in file MKL46Z4.s
   Uses
      At line 1439 in file MKL46Z4.s
Comment: PORTB_PCR15_OFFSET used once
PORTB_PCR16 4004A040

Symbol: PORTB_PCR16
   Definitions
      At line 1440 in file MKL46Z4.s
   Uses
      None
Comment: PORTB_PCR16 unused
PORTB_PCR16_OFFSET 00000040

Symbol: PORTB_PCR16_OFFSET
   Definitions
      At line 1405 in file MKL46Z4.s
   Uses
      At line 1440 in file MKL46Z4.s
Comment: PORTB_PCR16_OFFSET used once
PORTB_PCR17 4004A044

Symbol: PORTB_PCR17
   Definitions



ARM Macro Assembler    Page 96 Alphabetic symbol ordering
Absolute symbols

      At line 1441 in file MKL46Z4.s
   Uses
      None
Comment: PORTB_PCR17 unused
PORTB_PCR17_OFFSET 00000044

Symbol: PORTB_PCR17_OFFSET
   Definitions
      At line 1406 in file MKL46Z4.s
   Uses
      At line 1441 in file MKL46Z4.s
Comment: PORTB_PCR17_OFFSET used once
PORTB_PCR18 4004A048

Symbol: PORTB_PCR18
   Definitions
      At line 1442 in file MKL46Z4.s
   Uses
      None
Comment: PORTB_PCR18 unused
PORTB_PCR18_OFFSET 00000048

Symbol: PORTB_PCR18_OFFSET
   Definitions
      At line 1407 in file MKL46Z4.s
   Uses
      At line 1442 in file MKL46Z4.s
Comment: PORTB_PCR18_OFFSET used once
PORTB_PCR19 4004A04C

Symbol: PORTB_PCR19
   Definitions
      At line 1443 in file MKL46Z4.s
   Uses
      None
Comment: PORTB_PCR19 unused
PORTB_PCR19_OFFSET 0000004C

Symbol: PORTB_PCR19_OFFSET
   Definitions
      At line 1408 in file MKL46Z4.s
   Uses
      At line 1443 in file MKL46Z4.s
Comment: PORTB_PCR19_OFFSET used once
PORTB_PCR1_OFFSET 00000004

Symbol: PORTB_PCR1_OFFSET
   Definitions
      At line 1390 in file MKL46Z4.s
   Uses
      At line 1425 in file MKL46Z4.s
Comment: PORTB_PCR1_OFFSET used once
PORTB_PCR2 4004A008

Symbol: PORTB_PCR2
   Definitions
      At line 1426 in file MKL46Z4.s
   Uses
      None



ARM Macro Assembler    Page 97 Alphabetic symbol ordering
Absolute symbols

Comment: PORTB_PCR2 unused
PORTB_PCR20 4004A050

Symbol: PORTB_PCR20
   Definitions
      At line 1444 in file MKL46Z4.s
   Uses
      None
Comment: PORTB_PCR20 unused
PORTB_PCR20_OFFSET 00000050

Symbol: PORTB_PCR20_OFFSET
   Definitions
      At line 1409 in file MKL46Z4.s
   Uses
      At line 1444 in file MKL46Z4.s
Comment: PORTB_PCR20_OFFSET used once
PORTB_PCR21 4004A054

Symbol: PORTB_PCR21
   Definitions
      At line 1445 in file MKL46Z4.s
   Uses
      None
Comment: PORTB_PCR21 unused
PORTB_PCR21_OFFSET 00000054

Symbol: PORTB_PCR21_OFFSET
   Definitions
      At line 1410 in file MKL46Z4.s
   Uses
      At line 1445 in file MKL46Z4.s
Comment: PORTB_PCR21_OFFSET used once
PORTB_PCR22 4004A058

Symbol: PORTB_PCR22
   Definitions
      At line 1446 in file MKL46Z4.s
   Uses
      None
Comment: PORTB_PCR22 unused
PORTB_PCR22_OFFSET 00000058

Symbol: PORTB_PCR22_OFFSET
   Definitions
      At line 1411 in file MKL46Z4.s
   Uses
      At line 1446 in file MKL46Z4.s
Comment: PORTB_PCR22_OFFSET used once
PORTB_PCR23 4004A05C

Symbol: PORTB_PCR23
   Definitions
      At line 1447 in file MKL46Z4.s
   Uses
      None
Comment: PORTB_PCR23 unused
PORTB_PCR23_OFFSET 0000005C




ARM Macro Assembler    Page 98 Alphabetic symbol ordering
Absolute symbols

Symbol: PORTB_PCR23_OFFSET
   Definitions
      At line 1412 in file MKL46Z4.s
   Uses
      At line 1447 in file MKL46Z4.s
Comment: PORTB_PCR23_OFFSET used once
PORTB_PCR24 4004A060

Symbol: PORTB_PCR24
   Definitions
      At line 1448 in file MKL46Z4.s
   Uses
      None
Comment: PORTB_PCR24 unused
PORTB_PCR24_OFFSET 00000060

Symbol: PORTB_PCR24_OFFSET
   Definitions
      At line 1413 in file MKL46Z4.s
   Uses
      At line 1448 in file MKL46Z4.s
Comment: PORTB_PCR24_OFFSET used once
PORTB_PCR25 4004A064

Symbol: PORTB_PCR25
   Definitions
      At line 1449 in file MKL46Z4.s
   Uses
      None
Comment: PORTB_PCR25 unused
PORTB_PCR25_OFFSET 00000064

Symbol: PORTB_PCR25_OFFSET
   Definitions
      At line 1414 in file MKL46Z4.s
   Uses
      At line 1449 in file MKL46Z4.s
Comment: PORTB_PCR25_OFFSET used once
PORTB_PCR26 4004A068

Symbol: PORTB_PCR26
   Definitions
      At line 1450 in file MKL46Z4.s
   Uses
      None
Comment: PORTB_PCR26 unused
PORTB_PCR26_OFFSET 00000068

Symbol: PORTB_PCR26_OFFSET
   Definitions
      At line 1415 in file MKL46Z4.s
   Uses
      At line 1450 in file MKL46Z4.s
Comment: PORTB_PCR26_OFFSET used once
PORTB_PCR27 4004A06C

Symbol: PORTB_PCR27
   Definitions
      At line 1451 in file MKL46Z4.s



ARM Macro Assembler    Page 99 Alphabetic symbol ordering
Absolute symbols

   Uses
      None
Comment: PORTB_PCR27 unused
PORTB_PCR27_OFFSET 0000006C

Symbol: PORTB_PCR27_OFFSET
   Definitions
      At line 1416 in file MKL46Z4.s
   Uses
      At line 1451 in file MKL46Z4.s
Comment: PORTB_PCR27_OFFSET used once
PORTB_PCR28 4004A070

Symbol: PORTB_PCR28
   Definitions
      At line 1452 in file MKL46Z4.s
   Uses
      None
Comment: PORTB_PCR28 unused
PORTB_PCR28_OFFSET 00000070

Symbol: PORTB_PCR28_OFFSET
   Definitions
      At line 1417 in file MKL46Z4.s
   Uses
      At line 1452 in file MKL46Z4.s
Comment: PORTB_PCR28_OFFSET used once
PORTB_PCR29 4004A074

Symbol: PORTB_PCR29
   Definitions
      At line 1453 in file MKL46Z4.s
   Uses
      None
Comment: PORTB_PCR29 unused
PORTB_PCR29_OFFSET 00000074

Symbol: PORTB_PCR29_OFFSET
   Definitions
      At line 1418 in file MKL46Z4.s
   Uses
      At line 1453 in file MKL46Z4.s
Comment: PORTB_PCR29_OFFSET used once
PORTB_PCR2_OFFSET 00000008

Symbol: PORTB_PCR2_OFFSET
   Definitions
      At line 1391 in file MKL46Z4.s
   Uses
      At line 1426 in file MKL46Z4.s
Comment: PORTB_PCR2_OFFSET used once
PORTB_PCR3 4004A00C

Symbol: PORTB_PCR3
   Definitions
      At line 1427 in file MKL46Z4.s
   Uses
      None
Comment: PORTB_PCR3 unused



ARM Macro Assembler    Page 100 Alphabetic symbol ordering
Absolute symbols

PORTB_PCR30 4004A078

Symbol: PORTB_PCR30
   Definitions
      At line 1454 in file MKL46Z4.s
   Uses
      None
Comment: PORTB_PCR30 unused
PORTB_PCR30_OFFSET 00000078

Symbol: PORTB_PCR30_OFFSET
   Definitions
      At line 1419 in file MKL46Z4.s
   Uses
      At line 1454 in file MKL46Z4.s
Comment: PORTB_PCR30_OFFSET used once
PORTB_PCR31 4004A07C

Symbol: PORTB_PCR31
   Definitions
      At line 1455 in file MKL46Z4.s
   Uses
      None
Comment: PORTB_PCR31 unused
PORTB_PCR31_OFFSET 0000007C

Symbol: PORTB_PCR31_OFFSET
   Definitions
      At line 1420 in file MKL46Z4.s
   Uses
      At line 1455 in file MKL46Z4.s
Comment: PORTB_PCR31_OFFSET used once
PORTB_PCR3_OFFSET 0000000C

Symbol: PORTB_PCR3_OFFSET
   Definitions
      At line 1392 in file MKL46Z4.s
   Uses
      At line 1427 in file MKL46Z4.s
Comment: PORTB_PCR3_OFFSET used once
PORTB_PCR4 4004A010

Symbol: PORTB_PCR4
   Definitions
      At line 1428 in file MKL46Z4.s
   Uses
      None
Comment: PORTB_PCR4 unused
PORTB_PCR4_OFFSET 00000010

Symbol: PORTB_PCR4_OFFSET
   Definitions
      At line 1393 in file MKL46Z4.s
   Uses
      At line 1428 in file MKL46Z4.s
Comment: PORTB_PCR4_OFFSET used once
PORTB_PCR5 4004A014

Symbol: PORTB_PCR5



ARM Macro Assembler    Page 101 Alphabetic symbol ordering
Absolute symbols

   Definitions
      At line 1429 in file MKL46Z4.s
   Uses
      None
Comment: PORTB_PCR5 unused
PORTB_PCR5_OFFSET 00000014

Symbol: PORTB_PCR5_OFFSET
   Definitions
      At line 1394 in file MKL46Z4.s
   Uses
      At line 1429 in file MKL46Z4.s
Comment: PORTB_PCR5_OFFSET used once
PORTB_PCR6 4004A018

Symbol: PORTB_PCR6
   Definitions
      At line 1430 in file MKL46Z4.s
   Uses
      None
Comment: PORTB_PCR6 unused
PORTB_PCR6_OFFSET 00000018

Symbol: PORTB_PCR6_OFFSET
   Definitions
      At line 1395 in file MKL46Z4.s
   Uses
      At line 1430 in file MKL46Z4.s
Comment: PORTB_PCR6_OFFSET used once
PORTB_PCR7 4004A01C

Symbol: PORTB_PCR7
   Definitions
      At line 1431 in file MKL46Z4.s
   Uses
      None
Comment: PORTB_PCR7 unused
PORTB_PCR7_OFFSET 0000001C

Symbol: PORTB_PCR7_OFFSET
   Definitions
      At line 1396 in file MKL46Z4.s
   Uses
      At line 1431 in file MKL46Z4.s
Comment: PORTB_PCR7_OFFSET used once
PORTB_PCR8 4004A020

Symbol: PORTB_PCR8
   Definitions
      At line 1432 in file MKL46Z4.s
   Uses
      None
Comment: PORTB_PCR8 unused
PORTB_PCR8_OFFSET 00000020

Symbol: PORTB_PCR8_OFFSET
   Definitions
      At line 1397 in file MKL46Z4.s
   Uses



ARM Macro Assembler    Page 102 Alphabetic symbol ordering
Absolute symbols

      At line 1432 in file MKL46Z4.s
Comment: PORTB_PCR8_OFFSET used once
PORTB_PCR9 4004A024

Symbol: PORTB_PCR9
   Definitions
      At line 1433 in file MKL46Z4.s
   Uses
      None
Comment: PORTB_PCR9 unused
PORTB_PCR9_OFFSET 00000024

Symbol: PORTB_PCR9_OFFSET
   Definitions
      At line 1398 in file MKL46Z4.s
   Uses
      At line 1433 in file MKL46Z4.s
Comment: PORTB_PCR9_OFFSET used once
PORTC_BASE 4004B000

Symbol: PORTC_BASE
   Definitions
      At line 1461 in file MKL46Z4.s
   Uses
      At line 1497 in file MKL46Z4.s
      At line 1498 in file MKL46Z4.s
      At line 1499 in file MKL46Z4.s
      At line 1500 in file MKL46Z4.s
      At line 1501 in file MKL46Z4.s
      At line 1502 in file MKL46Z4.s
      At line 1503 in file MKL46Z4.s
      At line 1504 in file MKL46Z4.s
      At line 1505 in file MKL46Z4.s
      At line 1506 in file MKL46Z4.s
      At line 1507 in file MKL46Z4.s
      At line 1508 in file MKL46Z4.s
      At line 1509 in file MKL46Z4.s
      At line 1510 in file MKL46Z4.s
      At line 1511 in file MKL46Z4.s
      At line 1512 in file MKL46Z4.s
      At line 1513 in file MKL46Z4.s
      At line 1514 in file MKL46Z4.s
      At line 1515 in file MKL46Z4.s
      At line 1516 in file MKL46Z4.s
      At line 1517 in file MKL46Z4.s
      At line 1518 in file MKL46Z4.s
      At line 1519 in file MKL46Z4.s
      At line 1520 in file MKL46Z4.s
      At line 1521 in file MKL46Z4.s
      At line 1522 in file MKL46Z4.s
      At line 1523 in file MKL46Z4.s
      At line 1524 in file MKL46Z4.s
      At line 1525 in file MKL46Z4.s
      At line 1526 in file MKL46Z4.s
      At line 1527 in file MKL46Z4.s
      At line 1528 in file MKL46Z4.s
      At line 1529 in file MKL46Z4.s
      At line 1530 in file MKL46Z4.s
      At line 1531 in file MKL46Z4.s



ARM Macro Assembler    Page 103 Alphabetic symbol ordering
Absolute symbols


PORTC_GPCHR 4004B084

Symbol: PORTC_GPCHR
   Definitions
      At line 1530 in file MKL46Z4.s
   Uses
      None
Comment: PORTC_GPCHR unused
PORTC_GPCHR_OFFSET 00000084

Symbol: PORTC_GPCHR_OFFSET
   Definitions
      At line 1495 in file MKL46Z4.s
   Uses
      At line 1530 in file MKL46Z4.s
Comment: PORTC_GPCHR_OFFSET used once
PORTC_GPCLR 4004B080

Symbol: PORTC_GPCLR
   Definitions
      At line 1529 in file MKL46Z4.s
   Uses
      None
Comment: PORTC_GPCLR unused
PORTC_GPCLR_OFFSET 00000080

Symbol: PORTC_GPCLR_OFFSET
   Definitions
      At line 1494 in file MKL46Z4.s
   Uses
      At line 1529 in file MKL46Z4.s
Comment: PORTC_GPCLR_OFFSET used once
PORTC_ISFR 4004B0A0

Symbol: PORTC_ISFR
   Definitions
      At line 1531 in file MKL46Z4.s
   Uses
      None
Comment: PORTC_ISFR unused
PORTC_ISFR_OFFSET 000000A0

Symbol: PORTC_ISFR_OFFSET
   Definitions
      At line 1496 in file MKL46Z4.s
   Uses
      At line 1531 in file MKL46Z4.s
Comment: PORTC_ISFR_OFFSET used once
PORTC_PCR0 4004B000

Symbol: PORTC_PCR0
   Definitions
      At line 1497 in file MKL46Z4.s
   Uses
      None
Comment: PORTC_PCR0 unused
PORTC_PCR0_OFFSET 00000000




ARM Macro Assembler    Page 104 Alphabetic symbol ordering
Absolute symbols

Symbol: PORTC_PCR0_OFFSET
   Definitions
      At line 1462 in file MKL46Z4.s
   Uses
      At line 1497 in file MKL46Z4.s
Comment: PORTC_PCR0_OFFSET used once
PORTC_PCR1 4004B004

Symbol: PORTC_PCR1
   Definitions
      At line 1498 in file MKL46Z4.s
   Uses
      None
Comment: PORTC_PCR1 unused
PORTC_PCR10 4004B028

Symbol: PORTC_PCR10
   Definitions
      At line 1507 in file MKL46Z4.s
   Uses
      None
Comment: PORTC_PCR10 unused
PORTC_PCR10_OFFSET 00000028

Symbol: PORTC_PCR10_OFFSET
   Definitions
      At line 1472 in file MKL46Z4.s
   Uses
      At line 1507 in file MKL46Z4.s
Comment: PORTC_PCR10_OFFSET used once
PORTC_PCR11 4004B02C

Symbol: PORTC_PCR11
   Definitions
      At line 1508 in file MKL46Z4.s
   Uses
      None
Comment: PORTC_PCR11 unused
PORTC_PCR11_OFFSET 0000002C

Symbol: PORTC_PCR11_OFFSET
   Definitions
      At line 1473 in file MKL46Z4.s
   Uses
      At line 1508 in file MKL46Z4.s
Comment: PORTC_PCR11_OFFSET used once
PORTC_PCR12 4004B030

Symbol: PORTC_PCR12
   Definitions
      At line 1509 in file MKL46Z4.s
   Uses
      None
Comment: PORTC_PCR12 unused
PORTC_PCR12_OFFSET 00000030

Symbol: PORTC_PCR12_OFFSET
   Definitions
      At line 1474 in file MKL46Z4.s



ARM Macro Assembler    Page 105 Alphabetic symbol ordering
Absolute symbols

   Uses
      At line 1509 in file MKL46Z4.s
Comment: PORTC_PCR12_OFFSET used once
PORTC_PCR13 4004B034

Symbol: PORTC_PCR13
   Definitions
      At line 1510 in file MKL46Z4.s
   Uses
      None
Comment: PORTC_PCR13 unused
PORTC_PCR13_OFFSET 00000034

Symbol: PORTC_PCR13_OFFSET
   Definitions
      At line 1475 in file MKL46Z4.s
   Uses
      At line 1510 in file MKL46Z4.s
Comment: PORTC_PCR13_OFFSET used once
PORTC_PCR14 4004B038

Symbol: PORTC_PCR14
   Definitions
      At line 1511 in file MKL46Z4.s
   Uses
      None
Comment: PORTC_PCR14 unused
PORTC_PCR14_OFFSET 00000038

Symbol: PORTC_PCR14_OFFSET
   Definitions
      At line 1476 in file MKL46Z4.s
   Uses
      At line 1511 in file MKL46Z4.s
Comment: PORTC_PCR14_OFFSET used once
PORTC_PCR15 4004B03C

Symbol: PORTC_PCR15
   Definitions
      At line 1512 in file MKL46Z4.s
   Uses
      None
Comment: PORTC_PCR15 unused
PORTC_PCR15_OFFSET 0000003C

Symbol: PORTC_PCR15_OFFSET
   Definitions
      At line 1477 in file MKL46Z4.s
   Uses
      At line 1512 in file MKL46Z4.s
Comment: PORTC_PCR15_OFFSET used once
PORTC_PCR16 4004B040

Symbol: PORTC_PCR16
   Definitions
      At line 1513 in file MKL46Z4.s
   Uses
      None
Comment: PORTC_PCR16 unused



ARM Macro Assembler    Page 106 Alphabetic symbol ordering
Absolute symbols

PORTC_PCR16_OFFSET 00000040

Symbol: PORTC_PCR16_OFFSET
   Definitions
      At line 1478 in file MKL46Z4.s
   Uses
      At line 1513 in file MKL46Z4.s
Comment: PORTC_PCR16_OFFSET used once
PORTC_PCR17 4004B044

Symbol: PORTC_PCR17
   Definitions
      At line 1514 in file MKL46Z4.s
   Uses
      None
Comment: PORTC_PCR17 unused
PORTC_PCR17_OFFSET 00000044

Symbol: PORTC_PCR17_OFFSET
   Definitions
      At line 1479 in file MKL46Z4.s
   Uses
      At line 1514 in file MKL46Z4.s
Comment: PORTC_PCR17_OFFSET used once
PORTC_PCR18 4004B048

Symbol: PORTC_PCR18
   Definitions
      At line 1515 in file MKL46Z4.s
   Uses
      None
Comment: PORTC_PCR18 unused
PORTC_PCR18_OFFSET 00000048

Symbol: PORTC_PCR18_OFFSET
   Definitions
      At line 1480 in file MKL46Z4.s
   Uses
      At line 1515 in file MKL46Z4.s
Comment: PORTC_PCR18_OFFSET used once
PORTC_PCR19 4004B04C

Symbol: PORTC_PCR19
   Definitions
      At line 1516 in file MKL46Z4.s
   Uses
      None
Comment: PORTC_PCR19 unused
PORTC_PCR19_OFFSET 0000004C

Symbol: PORTC_PCR19_OFFSET
   Definitions
      At line 1481 in file MKL46Z4.s
   Uses
      At line 1516 in file MKL46Z4.s
Comment: PORTC_PCR19_OFFSET used once
PORTC_PCR1_OFFSET 00000004

Symbol: PORTC_PCR1_OFFSET



ARM Macro Assembler    Page 107 Alphabetic symbol ordering
Absolute symbols

   Definitions
      At line 1463 in file MKL46Z4.s
   Uses
      At line 1498 in file MKL46Z4.s
Comment: PORTC_PCR1_OFFSET used once
PORTC_PCR2 4004B008

Symbol: PORTC_PCR2
   Definitions
      At line 1499 in file MKL46Z4.s
   Uses
      None
Comment: PORTC_PCR2 unused
PORTC_PCR20 4004B050

Symbol: PORTC_PCR20
   Definitions
      At line 1517 in file MKL46Z4.s
   Uses
      None
Comment: PORTC_PCR20 unused
PORTC_PCR20_OFFSET 00000050

Symbol: PORTC_PCR20_OFFSET
   Definitions
      At line 1482 in file MKL46Z4.s
   Uses
      At line 1517 in file MKL46Z4.s
Comment: PORTC_PCR20_OFFSET used once
PORTC_PCR21 4004B054

Symbol: PORTC_PCR21
   Definitions
      At line 1518 in file MKL46Z4.s
   Uses
      None
Comment: PORTC_PCR21 unused
PORTC_PCR21_OFFSET 00000054

Symbol: PORTC_PCR21_OFFSET
   Definitions
      At line 1483 in file MKL46Z4.s
   Uses
      At line 1518 in file MKL46Z4.s
Comment: PORTC_PCR21_OFFSET used once
PORTC_PCR22 4004B058

Symbol: PORTC_PCR22
   Definitions
      At line 1519 in file MKL46Z4.s
   Uses
      None
Comment: PORTC_PCR22 unused
PORTC_PCR22_OFFSET 00000058

Symbol: PORTC_PCR22_OFFSET
   Definitions
      At line 1484 in file MKL46Z4.s
   Uses



ARM Macro Assembler    Page 108 Alphabetic symbol ordering
Absolute symbols

      At line 1519 in file MKL46Z4.s
Comment: PORTC_PCR22_OFFSET used once
PORTC_PCR23 4004B05C

Symbol: PORTC_PCR23
   Definitions
      At line 1520 in file MKL46Z4.s
   Uses
      None
Comment: PORTC_PCR23 unused
PORTC_PCR23_OFFSET 0000005C

Symbol: PORTC_PCR23_OFFSET
   Definitions
      At line 1485 in file MKL46Z4.s
   Uses
      At line 1520 in file MKL46Z4.s
Comment: PORTC_PCR23_OFFSET used once
PORTC_PCR24 4004B060

Symbol: PORTC_PCR24
   Definitions
      At line 1521 in file MKL46Z4.s
   Uses
      None
Comment: PORTC_PCR24 unused
PORTC_PCR24_OFFSET 00000060

Symbol: PORTC_PCR24_OFFSET
   Definitions
      At line 1486 in file MKL46Z4.s
   Uses
      At line 1521 in file MKL46Z4.s
Comment: PORTC_PCR24_OFFSET used once
PORTC_PCR25 4004B064

Symbol: PORTC_PCR25
   Definitions
      At line 1522 in file MKL46Z4.s
   Uses
      None
Comment: PORTC_PCR25 unused
PORTC_PCR25_OFFSET 00000064

Symbol: PORTC_PCR25_OFFSET
   Definitions
      At line 1487 in file MKL46Z4.s
   Uses
      At line 1522 in file MKL46Z4.s
Comment: PORTC_PCR25_OFFSET used once
PORTC_PCR26 4004B068

Symbol: PORTC_PCR26
   Definitions
      At line 1523 in file MKL46Z4.s
   Uses
      None
Comment: PORTC_PCR26 unused
PORTC_PCR26_OFFSET 00000068



ARM Macro Assembler    Page 109 Alphabetic symbol ordering
Absolute symbols


Symbol: PORTC_PCR26_OFFSET
   Definitions
      At line 1488 in file MKL46Z4.s
   Uses
      At line 1523 in file MKL46Z4.s
Comment: PORTC_PCR26_OFFSET used once
PORTC_PCR27 4004B06C

Symbol: PORTC_PCR27
   Definitions
      At line 1524 in file MKL46Z4.s
   Uses
      None
Comment: PORTC_PCR27 unused
PORTC_PCR27_OFFSET 0000006C

Symbol: PORTC_PCR27_OFFSET
   Definitions
      At line 1489 in file MKL46Z4.s
   Uses
      At line 1524 in file MKL46Z4.s
Comment: PORTC_PCR27_OFFSET used once
PORTC_PCR28 4004B070

Symbol: PORTC_PCR28
   Definitions
      At line 1525 in file MKL46Z4.s
   Uses
      None
Comment: PORTC_PCR28 unused
PORTC_PCR28_OFFSET 00000070

Symbol: PORTC_PCR28_OFFSET
   Definitions
      At line 1490 in file MKL46Z4.s
   Uses
      At line 1525 in file MKL46Z4.s
Comment: PORTC_PCR28_OFFSET used once
PORTC_PCR29 4004B074

Symbol: PORTC_PCR29
   Definitions
      At line 1526 in file MKL46Z4.s
   Uses
      None
Comment: PORTC_PCR29 unused
PORTC_PCR29_OFFSET 00000074

Symbol: PORTC_PCR29_OFFSET
   Definitions
      At line 1491 in file MKL46Z4.s
   Uses
      At line 1526 in file MKL46Z4.s
Comment: PORTC_PCR29_OFFSET used once
PORTC_PCR2_OFFSET 00000008

Symbol: PORTC_PCR2_OFFSET
   Definitions



ARM Macro Assembler    Page 110 Alphabetic symbol ordering
Absolute symbols

      At line 1464 in file MKL46Z4.s
   Uses
      At line 1499 in file MKL46Z4.s
Comment: PORTC_PCR2_OFFSET used once
PORTC_PCR3 4004B00C

Symbol: PORTC_PCR3
   Definitions
      At line 1500 in file MKL46Z4.s
   Uses
      None
Comment: PORTC_PCR3 unused
PORTC_PCR30 4004B078

Symbol: PORTC_PCR30
   Definitions
      At line 1527 in file MKL46Z4.s
   Uses
      None
Comment: PORTC_PCR30 unused
PORTC_PCR30_OFFSET 00000078

Symbol: PORTC_PCR30_OFFSET
   Definitions
      At line 1492 in file MKL46Z4.s
   Uses
      At line 1527 in file MKL46Z4.s
Comment: PORTC_PCR30_OFFSET used once
PORTC_PCR31 4004B07C

Symbol: PORTC_PCR31
   Definitions
      At line 1528 in file MKL46Z4.s
   Uses
      None
Comment: PORTC_PCR31 unused
PORTC_PCR31_OFFSET 0000007C

Symbol: PORTC_PCR31_OFFSET
   Definitions
      At line 1493 in file MKL46Z4.s
   Uses
      At line 1528 in file MKL46Z4.s
Comment: PORTC_PCR31_OFFSET used once
PORTC_PCR3_OFFSET 0000000C

Symbol: PORTC_PCR3_OFFSET
   Definitions
      At line 1465 in file MKL46Z4.s
   Uses
      At line 1500 in file MKL46Z4.s
Comment: PORTC_PCR3_OFFSET used once
PORTC_PCR4 4004B010

Symbol: PORTC_PCR4
   Definitions
      At line 1501 in file MKL46Z4.s
   Uses
      None



ARM Macro Assembler    Page 111 Alphabetic symbol ordering
Absolute symbols

Comment: PORTC_PCR4 unused
PORTC_PCR4_OFFSET 00000010

Symbol: PORTC_PCR4_OFFSET
   Definitions
      At line 1466 in file MKL46Z4.s
   Uses
      At line 1501 in file MKL46Z4.s
Comment: PORTC_PCR4_OFFSET used once
PORTC_PCR5 4004B014

Symbol: PORTC_PCR5
   Definitions
      At line 1502 in file MKL46Z4.s
   Uses
      None
Comment: PORTC_PCR5 unused
PORTC_PCR5_OFFSET 00000014

Symbol: PORTC_PCR5_OFFSET
   Definitions
      At line 1467 in file MKL46Z4.s
   Uses
      At line 1502 in file MKL46Z4.s
Comment: PORTC_PCR5_OFFSET used once
PORTC_PCR6 4004B018

Symbol: PORTC_PCR6
   Definitions
      At line 1503 in file MKL46Z4.s
   Uses
      None
Comment: PORTC_PCR6 unused
PORTC_PCR6_OFFSET 00000018

Symbol: PORTC_PCR6_OFFSET
   Definitions
      At line 1468 in file MKL46Z4.s
   Uses
      At line 1503 in file MKL46Z4.s
Comment: PORTC_PCR6_OFFSET used once
PORTC_PCR7 4004B01C

Symbol: PORTC_PCR7
   Definitions
      At line 1504 in file MKL46Z4.s
   Uses
      None
Comment: PORTC_PCR7 unused
PORTC_PCR7_OFFSET 0000001C

Symbol: PORTC_PCR7_OFFSET
   Definitions
      At line 1469 in file MKL46Z4.s
   Uses
      At line 1504 in file MKL46Z4.s
Comment: PORTC_PCR7_OFFSET used once
PORTC_PCR8 4004B020




ARM Macro Assembler    Page 112 Alphabetic symbol ordering
Absolute symbols

Symbol: PORTC_PCR8
   Definitions
      At line 1505 in file MKL46Z4.s
   Uses
      None
Comment: PORTC_PCR8 unused
PORTC_PCR8_OFFSET 00000020

Symbol: PORTC_PCR8_OFFSET
   Definitions
      At line 1470 in file MKL46Z4.s
   Uses
      At line 1505 in file MKL46Z4.s
Comment: PORTC_PCR8_OFFSET used once
PORTC_PCR9 4004B024

Symbol: PORTC_PCR9
   Definitions
      At line 1506 in file MKL46Z4.s
   Uses
      None
Comment: PORTC_PCR9 unused
PORTC_PCR9_OFFSET 00000024

Symbol: PORTC_PCR9_OFFSET
   Definitions
      At line 1471 in file MKL46Z4.s
   Uses
      At line 1506 in file MKL46Z4.s
Comment: PORTC_PCR9_OFFSET used once
PORTC_PORTD_IPR E000E41C

Symbol: PORTC_PORTD_IPR
   Definitions
      At line 1012 in file MKL46Z4.s
   Uses
      None
Comment: PORTC_PORTD_IPR unused
PORTC_PORTD_IRQ 0000001F

Symbol: PORTC_PORTD_IRQ
   Definitions
      At line 1082 in file MKL46Z4.s
   Uses
      At line 1116 in file MKL46Z4.s
Comment: PORTC_PORTD_IRQ used once
PORTC_PORTD_IRQ_MASK 80000000

Symbol: PORTC_PORTD_IRQ_MASK
   Definitions
      At line 1116 in file MKL46Z4.s
   Uses
      None
Comment: PORTC_PORTD_IRQ_MASK unused
PORTC_PORTD_PRI_POS 0000001E

Symbol: PORTC_PORTD_PRI_POS
   Definitions
      At line 1048 in file MKL46Z4.s



ARM Macro Assembler    Page 113 Alphabetic symbol ordering
Absolute symbols

   Uses
      None
Comment: PORTC_PORTD_PRI_POS unused
PORTD_BASE 4004C000

Symbol: PORTD_BASE
   Definitions
      At line 1534 in file MKL46Z4.s
   Uses
      At line 1570 in file MKL46Z4.s
      At line 1571 in file MKL46Z4.s
      At line 1572 in file MKL46Z4.s
      At line 1573 in file MKL46Z4.s
      At line 1574 in file MKL46Z4.s
      At line 1575 in file MKL46Z4.s
      At line 1576 in file MKL46Z4.s
      At line 1577 in file MKL46Z4.s
      At line 1578 in file MKL46Z4.s
      At line 1579 in file MKL46Z4.s
      At line 1580 in file MKL46Z4.s
      At line 1581 in file MKL46Z4.s
      At line 1582 in file MKL46Z4.s
      At line 1583 in file MKL46Z4.s
      At line 1584 in file MKL46Z4.s
      At line 1585 in file MKL46Z4.s
      At line 1586 in file MKL46Z4.s
      At line 1587 in file MKL46Z4.s
      At line 1588 in file MKL46Z4.s
      At line 1589 in file MKL46Z4.s
      At line 1590 in file MKL46Z4.s
      At line 1591 in file MKL46Z4.s
      At line 1592 in file MKL46Z4.s
      At line 1593 in file MKL46Z4.s
      At line 1594 in file MKL46Z4.s
      At line 1595 in file MKL46Z4.s
      At line 1596 in file MKL46Z4.s
      At line 1597 in file MKL46Z4.s
      At line 1598 in file MKL46Z4.s
      At line 1599 in file MKL46Z4.s
      At line 1600 in file MKL46Z4.s
      At line 1601 in file MKL46Z4.s
      At line 1602 in file MKL46Z4.s
      At line 1603 in file MKL46Z4.s
      At line 1604 in file MKL46Z4.s
      At line 742 in file Exercise13.s

PORTD_GPCHR 4004C084

Symbol: PORTD_GPCHR
   Definitions
      At line 1603 in file MKL46Z4.s
   Uses
      None
Comment: PORTD_GPCHR unused
PORTD_GPCHR_OFFSET 00000084

Symbol: PORTD_GPCHR_OFFSET
   Definitions
      At line 1568 in file MKL46Z4.s



ARM Macro Assembler    Page 114 Alphabetic symbol ordering
Absolute symbols

   Uses
      At line 1603 in file MKL46Z4.s
Comment: PORTD_GPCHR_OFFSET used once
PORTD_GPCLR 4004C080

Symbol: PORTD_GPCLR
   Definitions
      At line 1602 in file MKL46Z4.s
   Uses
      None
Comment: PORTD_GPCLR unused
PORTD_GPCLR_OFFSET 00000080

Symbol: PORTD_GPCLR_OFFSET
   Definitions
      At line 1567 in file MKL46Z4.s
   Uses
      At line 1602 in file MKL46Z4.s
Comment: PORTD_GPCLR_OFFSET used once
PORTD_ISFR 4004C0A0

Symbol: PORTD_ISFR
   Definitions
      At line 1604 in file MKL46Z4.s
   Uses
      None
Comment: PORTD_ISFR unused
PORTD_ISFR_OFFSET 000000A0

Symbol: PORTD_ISFR_OFFSET
   Definitions
      At line 1569 in file MKL46Z4.s
   Uses
      At line 1604 in file MKL46Z4.s
Comment: PORTD_ISFR_OFFSET used once
PORTD_PCR0 4004C000

Symbol: PORTD_PCR0
   Definitions
      At line 1570 in file MKL46Z4.s
   Uses
      None
Comment: PORTD_PCR0 unused
PORTD_PCR0_OFFSET 00000000

Symbol: PORTD_PCR0_OFFSET
   Definitions
      At line 1535 in file MKL46Z4.s
   Uses
      At line 1570 in file MKL46Z4.s
Comment: PORTD_PCR0_OFFSET used once
PORTD_PCR1 4004C004

Symbol: PORTD_PCR1
   Definitions
      At line 1571 in file MKL46Z4.s
   Uses
      None
Comment: PORTD_PCR1 unused



ARM Macro Assembler    Page 115 Alphabetic symbol ordering
Absolute symbols

PORTD_PCR10 4004C028

Symbol: PORTD_PCR10
   Definitions
      At line 1580 in file MKL46Z4.s
   Uses
      None
Comment: PORTD_PCR10 unused
PORTD_PCR10_OFFSET 00000028

Symbol: PORTD_PCR10_OFFSET
   Definitions
      At line 1545 in file MKL46Z4.s
   Uses
      At line 1580 in file MKL46Z4.s
Comment: PORTD_PCR10_OFFSET used once
PORTD_PCR11 4004C02C

Symbol: PORTD_PCR11
   Definitions
      At line 1581 in file MKL46Z4.s
   Uses
      None
Comment: PORTD_PCR11 unused
PORTD_PCR11_OFFSET 0000002C

Symbol: PORTD_PCR11_OFFSET
   Definitions
      At line 1546 in file MKL46Z4.s
   Uses
      At line 1581 in file MKL46Z4.s
Comment: PORTD_PCR11_OFFSET used once
PORTD_PCR12 4004C030

Symbol: PORTD_PCR12
   Definitions
      At line 1582 in file MKL46Z4.s
   Uses
      None
Comment: PORTD_PCR12 unused
PORTD_PCR12_OFFSET 00000030

Symbol: PORTD_PCR12_OFFSET
   Definitions
      At line 1547 in file MKL46Z4.s
   Uses
      At line 1582 in file MKL46Z4.s
Comment: PORTD_PCR12_OFFSET used once
PORTD_PCR13 4004C034

Symbol: PORTD_PCR13
   Definitions
      At line 1583 in file MKL46Z4.s
   Uses
      None
Comment: PORTD_PCR13 unused
PORTD_PCR13_OFFSET 00000034

Symbol: PORTD_PCR13_OFFSET



ARM Macro Assembler    Page 116 Alphabetic symbol ordering
Absolute symbols

   Definitions
      At line 1548 in file MKL46Z4.s
   Uses
      At line 1583 in file MKL46Z4.s
Comment: PORTD_PCR13_OFFSET used once
PORTD_PCR14 4004C038

Symbol: PORTD_PCR14
   Definitions
      At line 1584 in file MKL46Z4.s
   Uses
      None
Comment: PORTD_PCR14 unused
PORTD_PCR14_OFFSET 00000038

Symbol: PORTD_PCR14_OFFSET
   Definitions
      At line 1549 in file MKL46Z4.s
   Uses
      At line 1584 in file MKL46Z4.s
Comment: PORTD_PCR14_OFFSET used once
PORTD_PCR15 4004C03C

Symbol: PORTD_PCR15
   Definitions
      At line 1585 in file MKL46Z4.s
   Uses
      None
Comment: PORTD_PCR15 unused
PORTD_PCR15_OFFSET 0000003C

Symbol: PORTD_PCR15_OFFSET
   Definitions
      At line 1550 in file MKL46Z4.s
   Uses
      At line 1585 in file MKL46Z4.s
Comment: PORTD_PCR15_OFFSET used once
PORTD_PCR16 4004C040

Symbol: PORTD_PCR16
   Definitions
      At line 1586 in file MKL46Z4.s
   Uses
      None
Comment: PORTD_PCR16 unused
PORTD_PCR16_OFFSET 00000040

Symbol: PORTD_PCR16_OFFSET
   Definitions
      At line 1551 in file MKL46Z4.s
   Uses
      At line 1586 in file MKL46Z4.s
Comment: PORTD_PCR16_OFFSET used once
PORTD_PCR17 4004C044

Symbol: PORTD_PCR17
   Definitions
      At line 1587 in file MKL46Z4.s
   Uses



ARM Macro Assembler    Page 117 Alphabetic symbol ordering
Absolute symbols

      None
Comment: PORTD_PCR17 unused
PORTD_PCR17_OFFSET 00000044

Symbol: PORTD_PCR17_OFFSET
   Definitions
      At line 1552 in file MKL46Z4.s
   Uses
      At line 1587 in file MKL46Z4.s
Comment: PORTD_PCR17_OFFSET used once
PORTD_PCR18 4004C048

Symbol: PORTD_PCR18
   Definitions
      At line 1588 in file MKL46Z4.s
   Uses
      None
Comment: PORTD_PCR18 unused
PORTD_PCR18_OFFSET 00000048

Symbol: PORTD_PCR18_OFFSET
   Definitions
      At line 1553 in file MKL46Z4.s
   Uses
      At line 1588 in file MKL46Z4.s
Comment: PORTD_PCR18_OFFSET used once
PORTD_PCR19 4004C04C

Symbol: PORTD_PCR19
   Definitions
      At line 1589 in file MKL46Z4.s
   Uses
      None
Comment: PORTD_PCR19 unused
PORTD_PCR19_OFFSET 0000004C

Symbol: PORTD_PCR19_OFFSET
   Definitions
      At line 1554 in file MKL46Z4.s
   Uses
      At line 1589 in file MKL46Z4.s
Comment: PORTD_PCR19_OFFSET used once
PORTD_PCR1_OFFSET 00000004

Symbol: PORTD_PCR1_OFFSET
   Definitions
      At line 1536 in file MKL46Z4.s
   Uses
      At line 1571 in file MKL46Z4.s
Comment: PORTD_PCR1_OFFSET used once
PORTD_PCR2 4004C008

Symbol: PORTD_PCR2
   Definitions
      At line 1572 in file MKL46Z4.s
   Uses
      None
Comment: PORTD_PCR2 unused
PORTD_PCR20 4004C050



ARM Macro Assembler    Page 118 Alphabetic symbol ordering
Absolute symbols


Symbol: PORTD_PCR20
   Definitions
      At line 1590 in file MKL46Z4.s
   Uses
      None
Comment: PORTD_PCR20 unused
PORTD_PCR20_OFFSET 00000050

Symbol: PORTD_PCR20_OFFSET
   Definitions
      At line 1555 in file MKL46Z4.s
   Uses
      At line 1590 in file MKL46Z4.s
Comment: PORTD_PCR20_OFFSET used once
PORTD_PCR21 4004C054

Symbol: PORTD_PCR21
   Definitions
      At line 1591 in file MKL46Z4.s
   Uses
      None
Comment: PORTD_PCR21 unused
PORTD_PCR21_OFFSET 00000054

Symbol: PORTD_PCR21_OFFSET
   Definitions
      At line 1556 in file MKL46Z4.s
   Uses
      At line 1591 in file MKL46Z4.s
Comment: PORTD_PCR21_OFFSET used once
PORTD_PCR22 4004C058

Symbol: PORTD_PCR22
   Definitions
      At line 1592 in file MKL46Z4.s
   Uses
      None
Comment: PORTD_PCR22 unused
PORTD_PCR22_OFFSET 00000058

Symbol: PORTD_PCR22_OFFSET
   Definitions
      At line 1557 in file MKL46Z4.s
   Uses
      At line 1592 in file MKL46Z4.s
Comment: PORTD_PCR22_OFFSET used once
PORTD_PCR23 4004C05C

Symbol: PORTD_PCR23
   Definitions
      At line 1593 in file MKL46Z4.s
   Uses
      None
Comment: PORTD_PCR23 unused
PORTD_PCR23_OFFSET 0000005C

Symbol: PORTD_PCR23_OFFSET
   Definitions



ARM Macro Assembler    Page 119 Alphabetic symbol ordering
Absolute symbols

      At line 1558 in file MKL46Z4.s
   Uses
      At line 1593 in file MKL46Z4.s
Comment: PORTD_PCR23_OFFSET used once
PORTD_PCR24 4004C060

Symbol: PORTD_PCR24
   Definitions
      At line 1594 in file MKL46Z4.s
   Uses
      None
Comment: PORTD_PCR24 unused
PORTD_PCR24_OFFSET 00000060

Symbol: PORTD_PCR24_OFFSET
   Definitions
      At line 1559 in file MKL46Z4.s
   Uses
      At line 1594 in file MKL46Z4.s
Comment: PORTD_PCR24_OFFSET used once
PORTD_PCR25 4004C064

Symbol: PORTD_PCR25
   Definitions
      At line 1595 in file MKL46Z4.s
   Uses
      None
Comment: PORTD_PCR25 unused
PORTD_PCR25_OFFSET 00000064

Symbol: PORTD_PCR25_OFFSET
   Definitions
      At line 1560 in file MKL46Z4.s
   Uses
      At line 1595 in file MKL46Z4.s
Comment: PORTD_PCR25_OFFSET used once
PORTD_PCR26 4004C068

Symbol: PORTD_PCR26
   Definitions
      At line 1596 in file MKL46Z4.s
   Uses
      None
Comment: PORTD_PCR26 unused
PORTD_PCR26_OFFSET 00000068

Symbol: PORTD_PCR26_OFFSET
   Definitions
      At line 1561 in file MKL46Z4.s
   Uses
      At line 1596 in file MKL46Z4.s
Comment: PORTD_PCR26_OFFSET used once
PORTD_PCR27 4004C06C

Symbol: PORTD_PCR27
   Definitions
      At line 1597 in file MKL46Z4.s
   Uses
      None



ARM Macro Assembler    Page 120 Alphabetic symbol ordering
Absolute symbols

Comment: PORTD_PCR27 unused
PORTD_PCR27_OFFSET 0000006C

Symbol: PORTD_PCR27_OFFSET
   Definitions
      At line 1562 in file MKL46Z4.s
   Uses
      At line 1597 in file MKL46Z4.s
Comment: PORTD_PCR27_OFFSET used once
PORTD_PCR28 4004C070

Symbol: PORTD_PCR28
   Definitions
      At line 1598 in file MKL46Z4.s
   Uses
      None
Comment: PORTD_PCR28 unused
PORTD_PCR28_OFFSET 00000070

Symbol: PORTD_PCR28_OFFSET
   Definitions
      At line 1563 in file MKL46Z4.s
   Uses
      At line 1598 in file MKL46Z4.s
Comment: PORTD_PCR28_OFFSET used once
PORTD_PCR29 4004C074

Symbol: PORTD_PCR29
   Definitions
      At line 1599 in file MKL46Z4.s
   Uses
      None
Comment: PORTD_PCR29 unused
PORTD_PCR29_OFFSET 00000074

Symbol: PORTD_PCR29_OFFSET
   Definitions
      At line 1564 in file MKL46Z4.s
   Uses
      At line 1599 in file MKL46Z4.s
Comment: PORTD_PCR29_OFFSET used once
PORTD_PCR2_OFFSET 00000008

Symbol: PORTD_PCR2_OFFSET
   Definitions
      At line 1537 in file MKL46Z4.s
   Uses
      At line 1572 in file MKL46Z4.s
Comment: PORTD_PCR2_OFFSET used once
PORTD_PCR3 4004C00C

Symbol: PORTD_PCR3
   Definitions
      At line 1573 in file MKL46Z4.s
   Uses
      None
Comment: PORTD_PCR3 unused
PORTD_PCR30 4004C078




ARM Macro Assembler    Page 121 Alphabetic symbol ordering
Absolute symbols

Symbol: PORTD_PCR30
   Definitions
      At line 1600 in file MKL46Z4.s
   Uses
      None
Comment: PORTD_PCR30 unused
PORTD_PCR30_OFFSET 00000078

Symbol: PORTD_PCR30_OFFSET
   Definitions
      At line 1565 in file MKL46Z4.s
   Uses
      At line 1600 in file MKL46Z4.s
Comment: PORTD_PCR30_OFFSET used once
PORTD_PCR31 4004C07C

Symbol: PORTD_PCR31
   Definitions
      At line 1601 in file MKL46Z4.s
   Uses
      None
Comment: PORTD_PCR31 unused
PORTD_PCR31_OFFSET 0000007C

Symbol: PORTD_PCR31_OFFSET
   Definitions
      At line 1566 in file MKL46Z4.s
   Uses
      At line 1601 in file MKL46Z4.s
Comment: PORTD_PCR31_OFFSET used once
PORTD_PCR3_OFFSET 0000000C

Symbol: PORTD_PCR3_OFFSET
   Definitions
      At line 1538 in file MKL46Z4.s
   Uses
      At line 1573 in file MKL46Z4.s
Comment: PORTD_PCR3_OFFSET used once
PORTD_PCR4 4004C010

Symbol: PORTD_PCR4
   Definitions
      At line 1574 in file MKL46Z4.s
   Uses
      None
Comment: PORTD_PCR4 unused
PORTD_PCR4_OFFSET 00000010

Symbol: PORTD_PCR4_OFFSET
   Definitions
      At line 1539 in file MKL46Z4.s
   Uses
      At line 1574 in file MKL46Z4.s
Comment: PORTD_PCR4_OFFSET used once
PORTD_PCR5 4004C014

Symbol: PORTD_PCR5
   Definitions
      At line 1575 in file MKL46Z4.s



ARM Macro Assembler    Page 122 Alphabetic symbol ordering
Absolute symbols

   Uses
      None
Comment: PORTD_PCR5 unused
PORTD_PCR5_OFFSET 00000014

Symbol: PORTD_PCR5_OFFSET
   Definitions
      At line 1540 in file MKL46Z4.s
   Uses
      At line 1575 in file MKL46Z4.s
      At line 744 in file Exercise13.s

PORTD_PCR6 4004C018

Symbol: PORTD_PCR6
   Definitions
      At line 1576 in file MKL46Z4.s
   Uses
      None
Comment: PORTD_PCR6 unused
PORTD_PCR6_OFFSET 00000018

Symbol: PORTD_PCR6_OFFSET
   Definitions
      At line 1541 in file MKL46Z4.s
   Uses
      At line 1576 in file MKL46Z4.s
Comment: PORTD_PCR6_OFFSET used once
PORTD_PCR7 4004C01C

Symbol: PORTD_PCR7
   Definitions
      At line 1577 in file MKL46Z4.s
   Uses
      None
Comment: PORTD_PCR7 unused
PORTD_PCR7_OFFSET 0000001C

Symbol: PORTD_PCR7_OFFSET
   Definitions
      At line 1542 in file MKL46Z4.s
   Uses
      At line 1577 in file MKL46Z4.s
Comment: PORTD_PCR7_OFFSET used once
PORTD_PCR8 4004C020

Symbol: PORTD_PCR8
   Definitions
      At line 1578 in file MKL46Z4.s
   Uses
      None
Comment: PORTD_PCR8 unused
PORTD_PCR8_OFFSET 00000020

Symbol: PORTD_PCR8_OFFSET
   Definitions
      At line 1543 in file MKL46Z4.s
   Uses
      At line 1578 in file MKL46Z4.s



ARM Macro Assembler    Page 123 Alphabetic symbol ordering
Absolute symbols

Comment: PORTD_PCR8_OFFSET used once
PORTD_PCR9 4004C024

Symbol: PORTD_PCR9
   Definitions
      At line 1579 in file MKL46Z4.s
   Uses
      None
Comment: PORTD_PCR9 unused
PORTD_PCR9_OFFSET 00000024

Symbol: PORTD_PCR9_OFFSET
   Definitions
      At line 1544 in file MKL46Z4.s
   Uses
      At line 1579 in file MKL46Z4.s
Comment: PORTD_PCR9_OFFSET used once
PORTD_Vector 0000002F

Symbol: PORTD_Vector
   Definitions
      At line 1166 in file MKL46Z4.s
   Uses
      None
Comment: PORTD_Vector unused
PORTE_BASE 4004D000

Symbol: PORTE_BASE
   Definitions
      At line 1607 in file MKL46Z4.s
   Uses
      At line 1643 in file MKL46Z4.s
      At line 1644 in file MKL46Z4.s
      At line 1645 in file MKL46Z4.s
      At line 1646 in file MKL46Z4.s
      At line 1647 in file MKL46Z4.s
      At line 1648 in file MKL46Z4.s
      At line 1649 in file MKL46Z4.s
      At line 1650 in file MKL46Z4.s
      At line 1651 in file MKL46Z4.s
      At line 1652 in file MKL46Z4.s
      At line 1653 in file MKL46Z4.s
      At line 1654 in file MKL46Z4.s
      At line 1655 in file MKL46Z4.s
      At line 1656 in file MKL46Z4.s
      At line 1657 in file MKL46Z4.s
      At line 1658 in file MKL46Z4.s
      At line 1659 in file MKL46Z4.s
      At line 1660 in file MKL46Z4.s
      At line 1661 in file MKL46Z4.s
      At line 1662 in file MKL46Z4.s
      At line 1663 in file MKL46Z4.s
      At line 1664 in file MKL46Z4.s
      At line 1665 in file MKL46Z4.s
      At line 1666 in file MKL46Z4.s
      At line 1667 in file MKL46Z4.s
      At line 1668 in file MKL46Z4.s
      At line 1669 in file MKL46Z4.s
      At line 1670 in file MKL46Z4.s



ARM Macro Assembler    Page 124 Alphabetic symbol ordering
Absolute symbols

      At line 1671 in file MKL46Z4.s
      At line 1672 in file MKL46Z4.s
      At line 1673 in file MKL46Z4.s
      At line 1674 in file MKL46Z4.s
      At line 1675 in file MKL46Z4.s
      At line 1676 in file MKL46Z4.s
      At line 1677 in file MKL46Z4.s
      At line 737 in file Exercise13.s

PORTE_GPCHR 4004D084

Symbol: PORTE_GPCHR
   Definitions
      At line 1676 in file MKL46Z4.s
   Uses
      None
Comment: PORTE_GPCHR unused
PORTE_GPCHR_OFFSET 00000084

Symbol: PORTE_GPCHR_OFFSET
   Definitions
      At line 1641 in file MKL46Z4.s
   Uses
      At line 1676 in file MKL46Z4.s
Comment: PORTE_GPCHR_OFFSET used once
PORTE_GPCLR 4004D080

Symbol: PORTE_GPCLR
   Definitions
      At line 1675 in file MKL46Z4.s
   Uses
      None
Comment: PORTE_GPCLR unused
PORTE_GPCLR_OFFSET 00000080

Symbol: PORTE_GPCLR_OFFSET
   Definitions
      At line 1640 in file MKL46Z4.s
   Uses
      At line 1675 in file MKL46Z4.s
Comment: PORTE_GPCLR_OFFSET used once
PORTE_ISFR 4004D0A0

Symbol: PORTE_ISFR
   Definitions
      At line 1677 in file MKL46Z4.s
   Uses
      None
Comment: PORTE_ISFR unused
PORTE_ISFR_OFFSET 000000A0

Symbol: PORTE_ISFR_OFFSET
   Definitions
      At line 1642 in file MKL46Z4.s
   Uses
      At line 1677 in file MKL46Z4.s
Comment: PORTE_ISFR_OFFSET used once
PORTE_PCR0 4004D000




ARM Macro Assembler    Page 125 Alphabetic symbol ordering
Absolute symbols

Symbol: PORTE_PCR0
   Definitions
      At line 1643 in file MKL46Z4.s
   Uses
      At line 1010 in file Exercise13.s
Comment: PORTE_PCR0 used once
PORTE_PCR0_OFFSET 00000000

Symbol: PORTE_PCR0_OFFSET
   Definitions
      At line 1608 in file MKL46Z4.s
   Uses
      At line 1643 in file MKL46Z4.s
Comment: PORTE_PCR0_OFFSET used once
PORTE_PCR1 4004D004

Symbol: PORTE_PCR1
   Definitions
      At line 1644 in file MKL46Z4.s
   Uses
      At line 1013 in file Exercise13.s
Comment: PORTE_PCR1 used once
PORTE_PCR10 4004D028

Symbol: PORTE_PCR10
   Definitions
      At line 1653 in file MKL46Z4.s
   Uses
      None
Comment: PORTE_PCR10 unused
PORTE_PCR10_OFFSET 00000028

Symbol: PORTE_PCR10_OFFSET
   Definitions
      At line 1618 in file MKL46Z4.s
   Uses
      At line 1653 in file MKL46Z4.s
Comment: PORTE_PCR10_OFFSET used once
PORTE_PCR11 4004D02C

Symbol: PORTE_PCR11
   Definitions
      At line 1654 in file MKL46Z4.s
   Uses
      None
Comment: PORTE_PCR11 unused
PORTE_PCR11_OFFSET 0000002C

Symbol: PORTE_PCR11_OFFSET
   Definitions
      At line 1619 in file MKL46Z4.s
   Uses
      At line 1654 in file MKL46Z4.s
Comment: PORTE_PCR11_OFFSET used once
PORTE_PCR12 4004D030

Symbol: PORTE_PCR12
   Definitions
      At line 1655 in file MKL46Z4.s



ARM Macro Assembler    Page 126 Alphabetic symbol ordering
Absolute symbols

   Uses
      None
Comment: PORTE_PCR12 unused
PORTE_PCR12_OFFSET 00000030

Symbol: PORTE_PCR12_OFFSET
   Definitions
      At line 1620 in file MKL46Z4.s
   Uses
      At line 1655 in file MKL46Z4.s
Comment: PORTE_PCR12_OFFSET used once
PORTE_PCR13 4004D034

Symbol: PORTE_PCR13
   Definitions
      At line 1656 in file MKL46Z4.s
   Uses
      None
Comment: PORTE_PCR13 unused
PORTE_PCR13_OFFSET 00000034

Symbol: PORTE_PCR13_OFFSET
   Definitions
      At line 1621 in file MKL46Z4.s
   Uses
      At line 1656 in file MKL46Z4.s
Comment: PORTE_PCR13_OFFSET used once
PORTE_PCR14 4004D038

Symbol: PORTE_PCR14
   Definitions
      At line 1657 in file MKL46Z4.s
   Uses
      None
Comment: PORTE_PCR14 unused
PORTE_PCR14_OFFSET 00000038

Symbol: PORTE_PCR14_OFFSET
   Definitions
      At line 1622 in file MKL46Z4.s
   Uses
      At line 1657 in file MKL46Z4.s
Comment: PORTE_PCR14_OFFSET used once
PORTE_PCR15 4004D03C

Symbol: PORTE_PCR15
   Definitions
      At line 1658 in file MKL46Z4.s
   Uses
      None
Comment: PORTE_PCR15 unused
PORTE_PCR15_OFFSET 0000003C

Symbol: PORTE_PCR15_OFFSET
   Definitions
      At line 1623 in file MKL46Z4.s
   Uses
      At line 1658 in file MKL46Z4.s
Comment: PORTE_PCR15_OFFSET used once



ARM Macro Assembler    Page 127 Alphabetic symbol ordering
Absolute symbols

PORTE_PCR16 4004D040

Symbol: PORTE_PCR16
   Definitions
      At line 1659 in file MKL46Z4.s
   Uses
      None
Comment: PORTE_PCR16 unused
PORTE_PCR16_OFFSET 00000040

Symbol: PORTE_PCR16_OFFSET
   Definitions
      At line 1624 in file MKL46Z4.s
   Uses
      At line 1659 in file MKL46Z4.s
Comment: PORTE_PCR16_OFFSET used once
PORTE_PCR17 4004D044

Symbol: PORTE_PCR17
   Definitions
      At line 1660 in file MKL46Z4.s
   Uses
      None
Comment: PORTE_PCR17 unused
PORTE_PCR17_OFFSET 00000044

Symbol: PORTE_PCR17_OFFSET
   Definitions
      At line 1625 in file MKL46Z4.s
   Uses
      At line 1660 in file MKL46Z4.s
Comment: PORTE_PCR17_OFFSET used once
PORTE_PCR18 4004D048

Symbol: PORTE_PCR18
   Definitions
      At line 1661 in file MKL46Z4.s
   Uses
      None
Comment: PORTE_PCR18 unused
PORTE_PCR18_OFFSET 00000048

Symbol: PORTE_PCR18_OFFSET
   Definitions
      At line 1626 in file MKL46Z4.s
   Uses
      At line 1661 in file MKL46Z4.s
Comment: PORTE_PCR18_OFFSET used once
PORTE_PCR19 4004D04C

Symbol: PORTE_PCR19
   Definitions
      At line 1662 in file MKL46Z4.s
   Uses
      None
Comment: PORTE_PCR19 unused
PORTE_PCR19_OFFSET 0000004C

Symbol: PORTE_PCR19_OFFSET



ARM Macro Assembler    Page 128 Alphabetic symbol ordering
Absolute symbols

   Definitions
      At line 1627 in file MKL46Z4.s
   Uses
      At line 1662 in file MKL46Z4.s
Comment: PORTE_PCR19_OFFSET used once
PORTE_PCR1_OFFSET 00000004

Symbol: PORTE_PCR1_OFFSET
   Definitions
      At line 1609 in file MKL46Z4.s
   Uses
      At line 1644 in file MKL46Z4.s
Comment: PORTE_PCR1_OFFSET used once
PORTE_PCR2 4004D008

Symbol: PORTE_PCR2
   Definitions
      At line 1645 in file MKL46Z4.s
   Uses
      None
Comment: PORTE_PCR2 unused
PORTE_PCR20 4004D050

Symbol: PORTE_PCR20
   Definitions
      At line 1663 in file MKL46Z4.s
   Uses
      None
Comment: PORTE_PCR20 unused
PORTE_PCR20_OFFSET 00000050

Symbol: PORTE_PCR20_OFFSET
   Definitions
      At line 1628 in file MKL46Z4.s
   Uses
      At line 1663 in file MKL46Z4.s
Comment: PORTE_PCR20_OFFSET used once
PORTE_PCR21 4004D054

Symbol: PORTE_PCR21
   Definitions
      At line 1664 in file MKL46Z4.s
   Uses
      None
Comment: PORTE_PCR21 unused
PORTE_PCR21_OFFSET 00000054

Symbol: PORTE_PCR21_OFFSET
   Definitions
      At line 1629 in file MKL46Z4.s
   Uses
      At line 1664 in file MKL46Z4.s
Comment: PORTE_PCR21_OFFSET used once
PORTE_PCR22 4004D058

Symbol: PORTE_PCR22
   Definitions
      At line 1665 in file MKL46Z4.s
   Uses



ARM Macro Assembler    Page 129 Alphabetic symbol ordering
Absolute symbols

      None
Comment: PORTE_PCR22 unused
PORTE_PCR22_OFFSET 00000058

Symbol: PORTE_PCR22_OFFSET
   Definitions
      At line 1630 in file MKL46Z4.s
   Uses
      At line 1665 in file MKL46Z4.s
Comment: PORTE_PCR22_OFFSET used once
PORTE_PCR23 4004D05C

Symbol: PORTE_PCR23
   Definitions
      At line 1666 in file MKL46Z4.s
   Uses
      None
Comment: PORTE_PCR23 unused
PORTE_PCR23_OFFSET 0000005C

Symbol: PORTE_PCR23_OFFSET
   Definitions
      At line 1631 in file MKL46Z4.s
   Uses
      At line 1666 in file MKL46Z4.s
Comment: PORTE_PCR23_OFFSET used once
PORTE_PCR24 4004D060

Symbol: PORTE_PCR24
   Definitions
      At line 1667 in file MKL46Z4.s
   Uses
      None
Comment: PORTE_PCR24 unused
PORTE_PCR24_OFFSET 00000060

Symbol: PORTE_PCR24_OFFSET
   Definitions
      At line 1632 in file MKL46Z4.s
   Uses
      At line 1667 in file MKL46Z4.s
Comment: PORTE_PCR24_OFFSET used once
PORTE_PCR25 4004D064

Symbol: PORTE_PCR25
   Definitions
      At line 1668 in file MKL46Z4.s
   Uses
      None
Comment: PORTE_PCR25 unused
PORTE_PCR25_OFFSET 00000064

Symbol: PORTE_PCR25_OFFSET
   Definitions
      At line 1633 in file MKL46Z4.s
   Uses
      At line 1668 in file MKL46Z4.s
Comment: PORTE_PCR25_OFFSET used once
PORTE_PCR26 4004D068



ARM Macro Assembler    Page 130 Alphabetic symbol ordering
Absolute symbols


Symbol: PORTE_PCR26
   Definitions
      At line 1669 in file MKL46Z4.s
   Uses
      None
Comment: PORTE_PCR26 unused
PORTE_PCR26_OFFSET 00000068

Symbol: PORTE_PCR26_OFFSET
   Definitions
      At line 1634 in file MKL46Z4.s
   Uses
      At line 1669 in file MKL46Z4.s
Comment: PORTE_PCR26_OFFSET used once
PORTE_PCR27 4004D06C

Symbol: PORTE_PCR27
   Definitions
      At line 1670 in file MKL46Z4.s
   Uses
      None
Comment: PORTE_PCR27 unused
PORTE_PCR27_OFFSET 0000006C

Symbol: PORTE_PCR27_OFFSET
   Definitions
      At line 1635 in file MKL46Z4.s
   Uses
      At line 1670 in file MKL46Z4.s
Comment: PORTE_PCR27_OFFSET used once
PORTE_PCR28 4004D070

Symbol: PORTE_PCR28
   Definitions
      At line 1671 in file MKL46Z4.s
   Uses
      None
Comment: PORTE_PCR28 unused
PORTE_PCR28_OFFSET 00000070

Symbol: PORTE_PCR28_OFFSET
   Definitions
      At line 1636 in file MKL46Z4.s
   Uses
      At line 1671 in file MKL46Z4.s
Comment: PORTE_PCR28_OFFSET used once
PORTE_PCR29 4004D074

Symbol: PORTE_PCR29
   Definitions
      At line 1672 in file MKL46Z4.s
   Uses
      None
Comment: PORTE_PCR29 unused
PORTE_PCR29_OFFSET 00000074

Symbol: PORTE_PCR29_OFFSET
   Definitions



ARM Macro Assembler    Page 131 Alphabetic symbol ordering
Absolute symbols

      At line 1637 in file MKL46Z4.s
   Uses
      At line 1672 in file MKL46Z4.s
      At line 739 in file Exercise13.s

PORTE_PCR2_OFFSET 00000008

Symbol: PORTE_PCR2_OFFSET
   Definitions
      At line 1610 in file MKL46Z4.s
   Uses
      At line 1645 in file MKL46Z4.s
Comment: PORTE_PCR2_OFFSET used once
PORTE_PCR3 4004D00C

Symbol: PORTE_PCR3
   Definitions
      At line 1646 in file MKL46Z4.s
   Uses
      None
Comment: PORTE_PCR3 unused
PORTE_PCR30 4004D078

Symbol: PORTE_PCR30
   Definitions
      At line 1673 in file MKL46Z4.s
   Uses
      None
Comment: PORTE_PCR30 unused
PORTE_PCR30_OFFSET 00000078

Symbol: PORTE_PCR30_OFFSET
   Definitions
      At line 1638 in file MKL46Z4.s
   Uses
      At line 1673 in file MKL46Z4.s
Comment: PORTE_PCR30_OFFSET used once
PORTE_PCR31 4004D07C

Symbol: PORTE_PCR31
   Definitions
      At line 1674 in file MKL46Z4.s
   Uses
      None
Comment: PORTE_PCR31 unused
PORTE_PCR31_OFFSET 0000007C

Symbol: PORTE_PCR31_OFFSET
   Definitions
      At line 1639 in file MKL46Z4.s
   Uses
      At line 1674 in file MKL46Z4.s
Comment: PORTE_PCR31_OFFSET used once
PORTE_PCR3_OFFSET 0000000C

Symbol: PORTE_PCR3_OFFSET
   Definitions
      At line 1611 in file MKL46Z4.s
   Uses



ARM Macro Assembler    Page 132 Alphabetic symbol ordering
Absolute symbols

      At line 1646 in file MKL46Z4.s
Comment: PORTE_PCR3_OFFSET used once
PORTE_PCR4 4004D010

Symbol: PORTE_PCR4
   Definitions
      At line 1647 in file MKL46Z4.s
   Uses
      None
Comment: PORTE_PCR4 unused
PORTE_PCR4_OFFSET 00000010

Symbol: PORTE_PCR4_OFFSET
   Definitions
      At line 1612 in file MKL46Z4.s
   Uses
      At line 1647 in file MKL46Z4.s
Comment: PORTE_PCR4_OFFSET used once
PORTE_PCR5 4004D014

Symbol: PORTE_PCR5
   Definitions
      At line 1648 in file MKL46Z4.s
   Uses
      None
Comment: PORTE_PCR5 unused
PORTE_PCR5_OFFSET 00000014

Symbol: PORTE_PCR5_OFFSET
   Definitions
      At line 1613 in file MKL46Z4.s
   Uses
      At line 1648 in file MKL46Z4.s
Comment: PORTE_PCR5_OFFSET used once
PORTE_PCR6 4004D018

Symbol: PORTE_PCR6
   Definitions
      At line 1649 in file MKL46Z4.s
   Uses
      None
Comment: PORTE_PCR6 unused
PORTE_PCR6_OFFSET 00000018

Symbol: PORTE_PCR6_OFFSET
   Definitions
      At line 1614 in file MKL46Z4.s
   Uses
      At line 1649 in file MKL46Z4.s
Comment: PORTE_PCR6_OFFSET used once
PORTE_PCR7 4004D01C

Symbol: PORTE_PCR7
   Definitions
      At line 1650 in file MKL46Z4.s
   Uses
      None
Comment: PORTE_PCR7 unused
PORTE_PCR7_OFFSET 0000001C



ARM Macro Assembler    Page 133 Alphabetic symbol ordering
Absolute symbols


Symbol: PORTE_PCR7_OFFSET
   Definitions
      At line 1615 in file MKL46Z4.s
   Uses
      At line 1650 in file MKL46Z4.s
Comment: PORTE_PCR7_OFFSET used once
PORTE_PCR8 4004D020

Symbol: PORTE_PCR8
   Definitions
      At line 1651 in file MKL46Z4.s
   Uses
      None
Comment: PORTE_PCR8 unused
PORTE_PCR8_OFFSET 00000020

Symbol: PORTE_PCR8_OFFSET
   Definitions
      At line 1616 in file MKL46Z4.s
   Uses
      At line 1651 in file MKL46Z4.s
Comment: PORTE_PCR8_OFFSET used once
PORTE_PCR9 4004D024

Symbol: PORTE_PCR9
   Definitions
      At line 1652 in file MKL46Z4.s
   Uses
      None
Comment: PORTE_PCR9 unused
PORTE_PCR9_OFFSET 00000024

Symbol: PORTE_PCR9_OFFSET
   Definitions
      At line 1617 in file MKL46Z4.s
   Uses
      At line 1652 in file MKL46Z4.s
Comment: PORTE_PCR9_OFFSET used once
PORT_PCR_DSE_MASK 00000040

Symbol: PORT_PCR_DSE_MASK
   Definitions
      At line 1295 in file MKL46Z4.s
   Uses
      None
Comment: PORT_PCR_DSE_MASK unused
PORT_PCR_DSE_SHIFT 00000006

Symbol: PORT_PCR_DSE_SHIFT
   Definitions
      At line 1296 in file MKL46Z4.s
   Uses
      None
Comment: PORT_PCR_DSE_SHIFT unused
PORT_PCR_IRCQ_MASK 000F0000

Symbol: PORT_PCR_IRCQ_MASK
   Definitions



ARM Macro Assembler    Page 134 Alphabetic symbol ordering
Absolute symbols

      At line 1291 in file MKL46Z4.s
   Uses
      None
Comment: PORT_PCR_IRCQ_MASK unused
PORT_PCR_IRCQ_SHIFT 00000010

Symbol: PORT_PCR_IRCQ_SHIFT
   Definitions
      At line 1292 in file MKL46Z4.s
   Uses
      None
Comment: PORT_PCR_IRCQ_SHIFT unused
PORT_PCR_ISF_MASK 01000000

Symbol: PORT_PCR_ISF_MASK
   Definitions
      At line 1289 in file MKL46Z4.s
   Uses
      At line 49 in file Exercise13.s
      At line 52 in file Exercise13.s
      At line 70 in file Exercise13.s
      At line 72 in file Exercise13.s

PORT_PCR_ISF_SHIFT 00000018

Symbol: PORT_PCR_ISF_SHIFT
   Definitions
      At line 1290 in file MKL46Z4.s
   Uses
      None
Comment: PORT_PCR_ISF_SHIFT unused
PORT_PCR_MUX_MASK 00000700

Symbol: PORT_PCR_MUX_MASK
   Definitions
      At line 1293 in file MKL46Z4.s
   Uses
      None
Comment: PORT_PCR_MUX_MASK unused
PORT_PCR_MUX_SELECT_0_MASK 00000000

Symbol: PORT_PCR_MUX_SELECT_0_MASK
   Definitions
      At line 1305 in file MKL46Z4.s
   Uses
      None
Comment: PORT_PCR_MUX_SELECT_0_MASK unused
PORT_PCR_MUX_SELECT_1_MASK 00000100

Symbol: PORT_PCR_MUX_SELECT_1_MASK
   Definitions
      At line 1306 in file MKL46Z4.s
   Uses
      None
Comment: PORT_PCR_MUX_SELECT_1_MASK unused
PORT_PCR_MUX_SELECT_2_MASK 00000200

Symbol: PORT_PCR_MUX_SELECT_2_MASK
   Definitions



ARM Macro Assembler    Page 135 Alphabetic symbol ordering
Absolute symbols

      At line 1307 in file MKL46Z4.s
   Uses
      None
Comment: PORT_PCR_MUX_SELECT_2_MASK unused
PORT_PCR_MUX_SELECT_3_MASK 00000300

Symbol: PORT_PCR_MUX_SELECT_3_MASK
   Definitions
      At line 1308 in file MKL46Z4.s
   Uses
      At line 67 in file Exercise13.s
      At line 68 in file Exercise13.s

PORT_PCR_MUX_SELECT_4_MASK 00000400

Symbol: PORT_PCR_MUX_SELECT_4_MASK
   Definitions
      At line 1309 in file MKL46Z4.s
   Uses
      None
Comment: PORT_PCR_MUX_SELECT_4_MASK unused
PORT_PCR_MUX_SELECT_5_MASK 00000500

Symbol: PORT_PCR_MUX_SELECT_5_MASK
   Definitions
      At line 1310 in file MKL46Z4.s
   Uses
      None
Comment: PORT_PCR_MUX_SELECT_5_MASK unused
PORT_PCR_MUX_SELECT_6_MASK 00000600

Symbol: PORT_PCR_MUX_SELECT_6_MASK
   Definitions
      At line 1311 in file MKL46Z4.s
   Uses
      None
Comment: PORT_PCR_MUX_SELECT_6_MASK unused
PORT_PCR_MUX_SELECT_7_MASK 00000700

Symbol: PORT_PCR_MUX_SELECT_7_MASK
   Definitions
      At line 1312 in file MKL46Z4.s
   Uses
      None
Comment: PORT_PCR_MUX_SELECT_7_MASK unused
PORT_PCR_MUX_SHIFT 00000008

Symbol: PORT_PCR_MUX_SHIFT
   Definitions
      At line 1294 in file MKL46Z4.s
   Uses
      At line 48 in file Exercise13.s
      At line 51 in file Exercise13.s

PORT_PCR_PE_MASK 00000002

Symbol: PORT_PCR_PE_MASK
   Definitions
      At line 1301 in file MKL46Z4.s



ARM Macro Assembler    Page 136 Alphabetic symbol ordering
Absolute symbols

   Uses
      None
Comment: PORT_PCR_PE_MASK unused
PORT_PCR_PE_SHIFT 00000001

Symbol: PORT_PCR_PE_SHIFT
   Definitions
      At line 1302 in file MKL46Z4.s
   Uses
      None
Comment: PORT_PCR_PE_SHIFT unused
PORT_PCR_PFE_MASK 00000010

Symbol: PORT_PCR_PFE_MASK
   Definitions
      At line 1297 in file MKL46Z4.s
   Uses
      None
Comment: PORT_PCR_PFE_MASK unused
PORT_PCR_PFE_SHIFT 00000004

Symbol: PORT_PCR_PFE_SHIFT
   Definitions
      At line 1298 in file MKL46Z4.s
   Uses
      None
Comment: PORT_PCR_PFE_SHIFT unused
PORT_PCR_PIN_MUX_SELECT_3 00000300

Symbol: PORT_PCR_PIN_MUX_SELECT_3
   Definitions
      At line 64 in file Exercise13.s
   Uses
      None
Comment: PORT_PCR_PIN_MUX_SELECT_3 unused
PORT_PCR_PS_MASK 00000001

Symbol: PORT_PCR_PS_MASK
   Definitions
      At line 1303 in file MKL46Z4.s
   Uses
      None
Comment: PORT_PCR_PS_MASK unused
PORT_PCR_PS_SHIFT 00000000

Symbol: PORT_PCR_PS_SHIFT
   Definitions
      At line 1304 in file MKL46Z4.s
   Uses
      None
Comment: PORT_PCR_PS_SHIFT unused
PORT_PCR_PTE0_MUX_UART1_TX 00000300

Symbol: PORT_PCR_PTE0_MUX_UART1_TX
   Definitions
      At line 67 in file Exercise13.s
   Uses
      At line 70 in file Exercise13.s
Comment: PORT_PCR_PTE0_MUX_UART1_TX used once



ARM Macro Assembler    Page 137 Alphabetic symbol ordering
Absolute symbols

PORT_PCR_PTE1_MUX_UART1_RX 00000300

Symbol: PORT_PCR_PTE1_MUX_UART1_RX
   Definitions
      At line 68 in file Exercise13.s
   Uses
      At line 72 in file Exercise13.s
Comment: PORT_PCR_PTE1_MUX_UART1_RX used once
PORT_PCR_SET_PTE0_UART1_TX 01000300

Symbol: PORT_PCR_SET_PTE0_UART1_TX
   Definitions
      At line 70 in file Exercise13.s
   Uses
      At line 1011 in file Exercise13.s
Comment: PORT_PCR_SET_PTE0_UART1_TX used once
PORT_PCR_SET_PTE1_UART1_RX 01000300

Symbol: PORT_PCR_SET_PTE1_UART1_RX
   Definitions
      At line 72 in file Exercise13.s
   Uses
      At line 1014 in file Exercise13.s
Comment: PORT_PCR_SET_PTE1_UART1_RX used once
PORT_PCR_SRE_MASK 00000004

Symbol: PORT_PCR_SRE_MASK
   Definitions
      At line 1299 in file MKL46Z4.s
   Uses
      None
Comment: PORT_PCR_SRE_MASK unused
PORT_PCR_SRE_SHIFT 00000002

Symbol: PORT_PCR_SRE_SHIFT
   Definitions
      At line 1300 in file MKL46Z4.s
   Uses
      None
Comment: PORT_PCR_SRE_SHIFT unused
POS_GREEN 00000005

Symbol: POS_GREEN
   Definitions
      At line 55 in file Exercise13.s
   Uses
      At line 57 in file Exercise13.s
Comment: POS_GREEN used once
POS_RED 0000001D

Symbol: POS_RED
   Definitions
      At line 54 in file Exercise13.s
   Uses
      At line 56 in file Exercise13.s
Comment: POS_RED used once
PSR_C_MASK 20000000

Symbol: PSR_C_MASK



ARM Macro Assembler    Page 138 Alphabetic symbol ordering
Absolute symbols

   Definitions
      At line 88 in file MKL46Z4.s
   Uses
      None
Comment: PSR_C_MASK unused
PSR_C_SHIFT 0000001D

Symbol: PSR_C_SHIFT
   Definitions
      At line 89 in file MKL46Z4.s
   Uses
      None
Comment: PSR_C_SHIFT unused
PSR_EXCEPTION_MASK 0000003F

Symbol: PSR_EXCEPTION_MASK
   Definitions
      At line 94 in file MKL46Z4.s
   Uses
      None
Comment: PSR_EXCEPTION_MASK unused
PSR_EXCEPTION_SHIFT 00000000

Symbol: PSR_EXCEPTION_SHIFT
   Definitions
      At line 95 in file MKL46Z4.s
   Uses
      None
Comment: PSR_EXCEPTION_SHIFT unused
PSR_N_MASK 80000000

Symbol: PSR_N_MASK
   Definitions
      At line 84 in file MKL46Z4.s
   Uses
      None
Comment: PSR_N_MASK unused
PSR_N_SHIFT 0000001F

Symbol: PSR_N_SHIFT
   Definitions
      At line 85 in file MKL46Z4.s
   Uses
      None
Comment: PSR_N_SHIFT unused
PSR_T_MASK 01000000

Symbol: PSR_T_MASK
   Definitions
      At line 92 in file MKL46Z4.s
   Uses
      None
Comment: PSR_T_MASK unused
PSR_T_SHIFT 00000018

Symbol: PSR_T_SHIFT
   Definitions
      At line 93 in file MKL46Z4.s
   Uses



ARM Macro Assembler    Page 139 Alphabetic symbol ordering
Absolute symbols

      None
Comment: PSR_T_SHIFT unused
PSR_V_MASK 10000000

Symbol: PSR_V_MASK
   Definitions
      At line 90 in file MKL46Z4.s
   Uses
      None
Comment: PSR_V_MASK unused
PSR_V_SHIFT 0000001C

Symbol: PSR_V_SHIFT
   Definitions
      At line 91 in file MKL46Z4.s
   Uses
      None
Comment: PSR_V_SHIFT unused
PSR_Z_MASK 40000000

Symbol: PSR_Z_MASK
   Definitions
      At line 86 in file MKL46Z4.s
   Uses
      None
Comment: PSR_Z_MASK unused
PSR_Z_SHIFT 0000001E

Symbol: PSR_Z_SHIFT
   Definitions
      At line 87 in file MKL46Z4.s
   Uses
      None
Comment: PSR_Z_SHIFT unused
PTD5_MUX_GPIO 00000100

Symbol: PTD5_MUX_GPIO
   Definitions
      At line 48 in file Exercise13.s
   Uses
      At line 49 in file Exercise13.s
Comment: PTD5_MUX_GPIO used once
PTE29_MUX_GPIO 00000100

Symbol: PTE29_MUX_GPIO
   Definitions
      At line 51 in file Exercise13.s
   Uses
      At line 52 in file Exercise13.s
Comment: PTE29_MUX_GPIO used once
PendSR_Vector 0000000E

Symbol: PendSR_Vector
   Definitions
      At line 1133 in file MKL46Z4.s
   Uses
      None
Comment: PendSR_Vector unused
Q_BUF_SZ 00000050



ARM Macro Assembler    Page 140 Alphabetic symbol ordering
Absolute symbols


Symbol: Q_BUF_SZ
   Definitions
      At line 28 in file Exercise13.s
   Uses
      At line 1193 in file Exercise13.s
      At line 1195 in file Exercise13.s
      At line 1201 in file Exercise13.s

Q_REC_SZ 00000012

Symbol: Q_REC_SZ
   Definitions
      At line 29 in file Exercise13.s
   Uses
      At line 1197 in file Exercise13.s
      At line 1199 in file Exercise13.s
      At line 1203 in file Exercise13.s

RET_ADDR_T_MASK 00000001

Symbol: RET_ADDR_T_MASK
   Definitions
      At line 26 in file MKL46Z4.s
   Uses
      None
Comment: RET_ADDR_T_MASK unused
RTC_IPR E000E414

Symbol: RTC_IPR
   Definitions
      At line 1001 in file MKL46Z4.s
   Uses
      None
Comment: RTC_IPR unused
RTC_IRQ 00000014

Symbol: RTC_IRQ
   Definitions
      At line 1071 in file MKL46Z4.s
   Uses
      At line 1105 in file MKL46Z4.s
Comment: RTC_IRQ used once
RTC_IRQ_MASK 00100000

Symbol: RTC_IRQ_MASK
   Definitions
      At line 1105 in file MKL46Z4.s
   Uses
      None
Comment: RTC_IRQ_MASK unused
RTC_PRI_POS 00000006

Symbol: RTC_PRI_POS
   Definitions
      At line 1037 in file MKL46Z4.s
   Uses
      None
Comment: RTC_PRI_POS unused



ARM Macro Assembler    Page 141 Alphabetic symbol ordering
Absolute symbols

RTC_Seconds_IPR E000E414

Symbol: RTC_Seconds_IPR
   Definitions
      At line 1002 in file MKL46Z4.s
   Uses
      None
Comment: RTC_Seconds_IPR unused
RTC_Seconds_IRQ 00000015

Symbol: RTC_Seconds_IRQ
   Definitions
      At line 1072 in file MKL46Z4.s
   Uses
      At line 1106 in file MKL46Z4.s
Comment: RTC_Seconds_IRQ used once
RTC_Seconds_IRQ_MASK 00200000

Symbol: RTC_Seconds_IRQ_MASK
   Definitions
      At line 1106 in file MKL46Z4.s
   Uses
      None
Comment: RTC_Seconds_IRQ_MASK unused
RTC_Seconds_PRI_POS 0000000E

Symbol: RTC_Seconds_PRI_POS
   Definitions
      At line 1038 in file MKL46Z4.s
   Uses
      None
Comment: RTC_Seconds_PRI_POS unused
RTC_Seconds_Vector 00000025

Symbol: RTC_Seconds_Vector
   Definitions
      At line 1156 in file MKL46Z4.s
   Uses
      None
Comment: RTC_Seconds_Vector unused
RTC_Vector 00000024

Symbol: RTC_Vector
   Definitions
      At line 1155 in file MKL46Z4.s
   Uses
      None
Comment: RTC_Vector unused
Reserved04_Vector 00000004

Symbol: Reserved04_Vector
   Definitions
      At line 1123 in file MKL46Z4.s
   Uses
      None
Comment: Reserved04_Vector unused
Reserved05_Vector 00000005

Symbol: Reserved05_Vector



ARM Macro Assembler    Page 142 Alphabetic symbol ordering
Absolute symbols

   Definitions
      At line 1124 in file MKL46Z4.s
   Uses
      None
Comment: Reserved05_Vector unused
Reserved06_Vector 00000006

Symbol: Reserved06_Vector
   Definitions
      At line 1125 in file MKL46Z4.s
   Uses
      None
Comment: Reserved06_Vector unused
Reserved07_Vector 00000007

Symbol: Reserved07_Vector
   Definitions
      At line 1126 in file MKL46Z4.s
   Uses
      None
Comment: Reserved07_Vector unused
Reserved08_Vector 00000008

Symbol: Reserved08_Vector
   Definitions
      At line 1127 in file MKL46Z4.s
   Uses
      None
Comment: Reserved08_Vector unused
Reserved09_Vector 00000009

Symbol: Reserved09_Vector
   Definitions
      At line 1128 in file MKL46Z4.s
   Uses
      None
Comment: Reserved09_Vector unused
Reserved10_Vector 0000000A

Symbol: Reserved10_Vector
   Definitions
      At line 1129 in file MKL46Z4.s
   Uses
      None
Comment: Reserved10_Vector unused
Reserved12_Vector 0000000C

Symbol: Reserved12_Vector
   Definitions
      At line 1131 in file MKL46Z4.s
   Uses
      None
Comment: Reserved12_Vector unused
Reserved13_Vector 0000000D

Symbol: Reserved13_Vector
   Definitions
      At line 1132 in file MKL46Z4.s
   Uses



ARM Macro Assembler    Page 143 Alphabetic symbol ordering
Absolute symbols

      None
Comment: Reserved13_Vector unused
Reserved20_IPR E000E404

Symbol: Reserved20_IPR
   Definitions
      At line 985 in file MKL46Z4.s
   Uses
      None
Comment: Reserved20_IPR unused
Reserved20_IRQ 00000004

Symbol: Reserved20_IRQ
   Definitions
      At line 1055 in file MKL46Z4.s
   Uses
      At line 1089 in file MKL46Z4.s
Comment: Reserved20_IRQ used once
Reserved20_IRQ_MASK 00000010

Symbol: Reserved20_IRQ_MASK
   Definitions
      At line 1089 in file MKL46Z4.s
   Uses
      None
Comment: Reserved20_IRQ_MASK unused
Reserved20_PRI_POS 00000006

Symbol: Reserved20_PRI_POS
   Definitions
      At line 1021 in file MKL46Z4.s
   Uses
      None
Comment: Reserved20_PRI_POS unused
Reserved20_Vector 00000014

Symbol: Reserved20_Vector
   Definitions
      At line 1139 in file MKL46Z4.s
   Uses
      None
Comment: Reserved20_Vector unused
Reset_Vector 00000001

Symbol: Reset_Vector
   Definitions
      At line 1120 in file MKL46Z4.s
   Uses
      None
Comment: Reset_Vector unused
SET_PTD5_GPIO 01000100

Symbol: SET_PTD5_GPIO
   Definitions
      At line 49 in file Exercise13.s
   Uses
      At line 743 in file Exercise13.s
Comment: SET_PTD5_GPIO used once
SET_PTE29_GPIO 01000100



ARM Macro Assembler    Page 144 Alphabetic symbol ordering
Absolute symbols


Symbol: SET_PTE29_GPIO
   Definitions
      At line 52 in file Exercise13.s
   Uses
      At line 738 in file Exercise13.s
Comment: SET_PTE29_GPIO used once
SIM_BASE 40047000

Symbol: SIM_BASE
   Definitions
      At line 1680 in file MKL46Z4.s
   Uses
      At line 1699 in file MKL46Z4.s
      At line 1700 in file MKL46Z4.s
      At line 1701 in file MKL46Z4.s
      At line 1702 in file MKL46Z4.s
      At line 1703 in file MKL46Z4.s
      At line 1704 in file MKL46Z4.s
      At line 1705 in file MKL46Z4.s
      At line 1706 in file MKL46Z4.s
      At line 1707 in file MKL46Z4.s
      At line 1708 in file MKL46Z4.s
      At line 1709 in file MKL46Z4.s
      At line 1710 in file MKL46Z4.s
      At line 1711 in file MKL46Z4.s
      At line 1712 in file MKL46Z4.s
      At line 1713 in file MKL46Z4.s
      At line 1714 in file MKL46Z4.s
      At line 1715 in file MKL46Z4.s
      At line 1716 in file MKL46Z4.s

SIM_CLKDIV1 40048044

Symbol: SIM_CLKDIV1
   Definitions
      At line 1699 in file MKL46Z4.s
   Uses
      None
Comment: SIM_CLKDIV1 unused
SIM_CLKDIV1_OFFSET 00001044

Symbol: SIM_CLKDIV1_OFFSET
   Definitions
      At line 1691 in file MKL46Z4.s
   Uses
      At line 1699 in file MKL46Z4.s
Comment: SIM_CLKDIV1_OFFSET used once
SIM_CLKDIV1_OUTDIV1_DIV2_MASK 10000000

Symbol: SIM_CLKDIV1_OUTDIV1_DIV2_MASK
   Definitions
      At line 1733 in file MKL46Z4.s
   Uses
      At line 1736 in file MKL46Z4.s
Comment: SIM_CLKDIV1_OUTDIV1_DIV2_MASK used once
SIM_CLKDIV1_OUTDIV1_MASK F0000000

Symbol: SIM_CLKDIV1_OUTDIV1_MASK



ARM Macro Assembler    Page 145 Alphabetic symbol ordering
Absolute symbols

   Definitions
      At line 1729 in file MKL46Z4.s
   Uses
      None
Comment: SIM_CLKDIV1_OUTDIV1_MASK unused
SIM_CLKDIV1_OUTDIV1_SHIFT 0000001C

Symbol: SIM_CLKDIV1_OUTDIV1_SHIFT
   Definitions
      At line 1730 in file MKL46Z4.s
   Uses
      None
Comment: SIM_CLKDIV1_OUTDIV1_SHIFT unused
SIM_CLKDIV1_OUTDIV4_DIV2_MASK 00010000

Symbol: SIM_CLKDIV1_OUTDIV4_DIV2_MASK
   Definitions
      At line 1734 in file MKL46Z4.s
   Uses
      At line 1736 in file MKL46Z4.s
Comment: SIM_CLKDIV1_OUTDIV4_DIV2_MASK used once
SIM_CLKDIV1_OUTDIV4_MASK 00070000

Symbol: SIM_CLKDIV1_OUTDIV4_MASK
   Definitions
      At line 1731 in file MKL46Z4.s
   Uses
      None
Comment: SIM_CLKDIV1_OUTDIV4_MASK unused
SIM_CLKDIV1_OUTDIV4_SHIFT 00000010

Symbol: SIM_CLKDIV1_OUTDIV4_SHIFT
   Definitions
      At line 1732 in file MKL46Z4.s
   Uses
      None
Comment: SIM_CLKDIV1_OUTDIV4_SHIFT unused
SIM_COPC 40048100

Symbol: SIM_COPC
   Definitions
      At line 1700 in file MKL46Z4.s
   Uses
      None
Comment: SIM_COPC unused
SIM_COPC_OFFSET 00001100

Symbol: SIM_COPC_OFFSET
   Definitions
      At line 1697 in file MKL46Z4.s
   Uses
      At line 1700 in file MKL46Z4.s
Comment: SIM_COPC_OFFSET used once
SIM_CORE_DIV2_BUS_DIV2 10010000

Symbol: SIM_CORE_DIV2_BUS_DIV2
   Definitions
      At line 1736 in file MKL46Z4.s
   Uses



ARM Macro Assembler    Page 146 Alphabetic symbol ordering
Absolute symbols

      None
Comment: SIM_CORE_DIV2_BUS_DIV2 unused
SIM_FCFG1 4004804C

Symbol: SIM_FCFG1
   Definitions
      At line 1701 in file MKL46Z4.s
   Uses
      None
Comment: SIM_FCFG1 unused
SIM_FCFG1_OFFSET 0000104C

Symbol: SIM_FCFG1_OFFSET
   Definitions
      At line 1692 in file MKL46Z4.s
   Uses
      At line 1701 in file MKL46Z4.s
Comment: SIM_FCFG1_OFFSET used once
SIM_FCFG2 40048050

Symbol: SIM_FCFG2
   Definitions
      At line 1702 in file MKL46Z4.s
   Uses
      None
Comment: SIM_FCFG2 unused
SIM_FCFG2_OFFSET 00001050

Symbol: SIM_FCFG2_OFFSET
   Definitions
      At line 1693 in file MKL46Z4.s
   Uses
      At line 1702 in file MKL46Z4.s
Comment: SIM_FCFG2_OFFSET used once
SIM_SCGC4 40048034

Symbol: SIM_SCGC4
   Definitions
      At line 1703 in file MKL46Z4.s
   Uses
      At line 996 in file Exercise13.s
Comment: SIM_SCGC4 used once
SIM_SCGC4_CMP_MASK 00080000

Symbol: SIM_SCGC4_CMP_MASK
   Definitions
      At line 1779 in file MKL46Z4.s
   Uses
      None
Comment: SIM_SCGC4_CMP_MASK unused
SIM_SCGC4_CMP_SHIFT 00000013

Symbol: SIM_SCGC4_CMP_SHIFT
   Definitions
      At line 1780 in file MKL46Z4.s
   Uses
      None
Comment: SIM_SCGC4_CMP_SHIFT unused
SIM_SCGC4_I2C0_MASK 00000040



ARM Macro Assembler    Page 147 Alphabetic symbol ordering
Absolute symbols


Symbol: SIM_SCGC4_I2C0_MASK
   Definitions
      At line 1791 in file MKL46Z4.s
   Uses
      None
Comment: SIM_SCGC4_I2C0_MASK unused
SIM_SCGC4_I2C0_SHIFT 00000006

Symbol: SIM_SCGC4_I2C0_SHIFT
   Definitions
      At line 1792 in file MKL46Z4.s
   Uses
      None
Comment: SIM_SCGC4_I2C0_SHIFT unused
SIM_SCGC4_I2C1_MASK 00000080

Symbol: SIM_SCGC4_I2C1_MASK
   Definitions
      At line 1789 in file MKL46Z4.s
   Uses
      None
Comment: SIM_SCGC4_I2C1_MASK unused
SIM_SCGC4_I2C1_SHIFT 00000007

Symbol: SIM_SCGC4_I2C1_SHIFT
   Definitions
      At line 1790 in file MKL46Z4.s
   Uses
      None
Comment: SIM_SCGC4_I2C1_SHIFT unused
SIM_SCGC4_OFFSET 00001034

Symbol: SIM_SCGC4_OFFSET
   Definitions
      At line 1687 in file MKL46Z4.s
   Uses
      At line 1703 in file MKL46Z4.s
Comment: SIM_SCGC4_OFFSET used once
SIM_SCGC4_SPI0_MASK 00400000

Symbol: SIM_SCGC4_SPI0_MASK
   Definitions
      At line 1777 in file MKL46Z4.s
   Uses
      None
Comment: SIM_SCGC4_SPI0_MASK unused
SIM_SCGC4_SPI0_SHIFT 00000016

Symbol: SIM_SCGC4_SPI0_SHIFT
   Definitions
      At line 1778 in file MKL46Z4.s
   Uses
      None
Comment: SIM_SCGC4_SPI0_SHIFT unused
SIM_SCGC4_SPI1_MASK 00800000

Symbol: SIM_SCGC4_SPI1_MASK
   Definitions



ARM Macro Assembler    Page 148 Alphabetic symbol ordering
Absolute symbols

      At line 1775 in file MKL46Z4.s
   Uses
      None
Comment: SIM_SCGC4_SPI1_MASK unused
SIM_SCGC4_SPI1_SHIFT 00000017

Symbol: SIM_SCGC4_SPI1_SHIFT
   Definitions
      At line 1776 in file MKL46Z4.s
   Uses
      None
Comment: SIM_SCGC4_SPI1_SHIFT unused
SIM_SCGC4_UART0_MASK 00000400

Symbol: SIM_SCGC4_UART0_MASK
   Definitions
      At line 1787 in file MKL46Z4.s
   Uses
      None
Comment: SIM_SCGC4_UART0_MASK unused
SIM_SCGC4_UART0_SHIFT 0000000A

Symbol: SIM_SCGC4_UART0_SHIFT
   Definitions
      At line 1788 in file MKL46Z4.s
   Uses
      None
Comment: SIM_SCGC4_UART0_SHIFT unused
SIM_SCGC4_UART1CGC_MASK 00000800

Symbol: SIM_SCGC4_UART1CGC_MASK
   Definitions
      At line 76 in file Exercise13.s
   Uses
      At line 997 in file Exercise13.s
Comment: SIM_SCGC4_UART1CGC_MASK used once
SIM_SCGC4_UART1_MASK 00000800

Symbol: SIM_SCGC4_UART1_MASK
   Definitions
      At line 1785 in file MKL46Z4.s
   Uses
      At line 76 in file Exercise13.s
Comment: SIM_SCGC4_UART1_MASK used once
SIM_SCGC4_UART1_SHIFT 0000000B

Symbol: SIM_SCGC4_UART1_SHIFT
   Definitions
      At line 1786 in file MKL46Z4.s
   Uses
      None
Comment: SIM_SCGC4_UART1_SHIFT unused
SIM_SCGC4_UART2_MASK 00001000

Symbol: SIM_SCGC4_UART2_MASK
   Definitions
      At line 1783 in file MKL46Z4.s
   Uses
      None



ARM Macro Assembler    Page 149 Alphabetic symbol ordering
Absolute symbols

Comment: SIM_SCGC4_UART2_MASK unused
SIM_SCGC4_UART2_SHIFT 0000000C

Symbol: SIM_SCGC4_UART2_SHIFT
   Definitions
      At line 1784 in file MKL46Z4.s
   Uses
      None
Comment: SIM_SCGC4_UART2_SHIFT unused
SIM_SCGC4_USBOTG_MASK 00040000

Symbol: SIM_SCGC4_USBOTG_MASK
   Definitions
      At line 1781 in file MKL46Z4.s
   Uses
      None
Comment: SIM_SCGC4_USBOTG_MASK unused
SIM_SCGC4_USBOTG_SHIFT 00000012

Symbol: SIM_SCGC4_USBOTG_SHIFT
   Definitions
      At line 1782 in file MKL46Z4.s
   Uses
      None
Comment: SIM_SCGC4_USBOTG_SHIFT unused
SIM_SCGC5 40048038

Symbol: SIM_SCGC5
   Definitions
      At line 1704 in file MKL46Z4.s
   Uses
      At line 726 in file Exercise13.s
      At line 1004 in file Exercise13.s

SIM_SCGC5_LPTMR_MASK 00000001

Symbol: SIM_SCGC5_LPTMR_MASK
   Definitions
      At line 1821 in file MKL46Z4.s
   Uses
      None
Comment: SIM_SCGC5_LPTMR_MASK unused
SIM_SCGC5_LPTMR_SHIFT 00000000

Symbol: SIM_SCGC5_LPTMR_SHIFT
   Definitions
      At line 1822 in file MKL46Z4.s
   Uses
      None
Comment: SIM_SCGC5_LPTMR_SHIFT unused
SIM_SCGC5_OFFSET 00001038

Symbol: SIM_SCGC5_OFFSET
   Definitions
      At line 1688 in file MKL46Z4.s
   Uses
      At line 1704 in file MKL46Z4.s
Comment: SIM_SCGC5_OFFSET used once
SIM_SCGC5_PORTA_MASK 00000200



ARM Macro Assembler    Page 150 Alphabetic symbol ordering
Absolute symbols


Symbol: SIM_SCGC5_PORTA_MASK
   Definitions
      At line 1817 in file MKL46Z4.s
   Uses
      None
Comment: SIM_SCGC5_PORTA_MASK unused
SIM_SCGC5_PORTA_SHIFT 00000009

Symbol: SIM_SCGC5_PORTA_SHIFT
   Definitions
      At line 1818 in file MKL46Z4.s
   Uses
      None
Comment: SIM_SCGC5_PORTA_SHIFT unused
SIM_SCGC5_PORTB_MASK 00000400

Symbol: SIM_SCGC5_PORTB_MASK
   Definitions
      At line 1815 in file MKL46Z4.s
   Uses
      None
Comment: SIM_SCGC5_PORTB_MASK unused
SIM_SCGC5_PORTB_SHIFT 0000000A

Symbol: SIM_SCGC5_PORTB_SHIFT
   Definitions
      At line 1816 in file MKL46Z4.s
   Uses
      None
Comment: SIM_SCGC5_PORTB_SHIFT unused
SIM_SCGC5_PORTC_MASK 00000800

Symbol: SIM_SCGC5_PORTC_MASK
   Definitions
      At line 1813 in file MKL46Z4.s
   Uses
      None
Comment: SIM_SCGC5_PORTC_MASK unused
SIM_SCGC5_PORTC_SHIFT 0000000B

Symbol: SIM_SCGC5_PORTC_SHIFT
   Definitions
      At line 1814 in file MKL46Z4.s
   Uses
      None
Comment: SIM_SCGC5_PORTC_SHIFT unused
SIM_SCGC5_PORTD_MASK 00001000

Symbol: SIM_SCGC5_PORTD_MASK
   Definitions
      At line 1811 in file MKL46Z4.s
   Uses
      At line 727 in file Exercise13.s
Comment: SIM_SCGC5_PORTD_MASK used once
SIM_SCGC5_PORTD_SHIFT 0000000C

Symbol: SIM_SCGC5_PORTD_SHIFT
   Definitions



ARM Macro Assembler    Page 151 Alphabetic symbol ordering
Absolute symbols

      At line 1812 in file MKL46Z4.s
   Uses
      None
Comment: SIM_SCGC5_PORTD_SHIFT unused
SIM_SCGC5_PORTECGC_MASK 00002000

Symbol: SIM_SCGC5_PORTECGC_MASK
   Definitions
      At line 80 in file Exercise13.s
   Uses
      At line 1005 in file Exercise13.s
Comment: SIM_SCGC5_PORTECGC_MASK used once
SIM_SCGC5_PORTE_MASK 00002000

Symbol: SIM_SCGC5_PORTE_MASK
   Definitions
      At line 1809 in file MKL46Z4.s
   Uses
      At line 80 in file Exercise13.s
      At line 727 in file Exercise13.s

SIM_SCGC5_PORTE_SHIFT 0000000D

Symbol: SIM_SCGC5_PORTE_SHIFT
   Definitions
      At line 1810 in file MKL46Z4.s
   Uses
      None
Comment: SIM_SCGC5_PORTE_SHIFT unused
SIM_SCGC5_TSI_MASK 00000020

Symbol: SIM_SCGC5_TSI_MASK
   Definitions
      At line 1819 in file MKL46Z4.s
   Uses
      None
Comment: SIM_SCGC5_TSI_MASK unused
SIM_SCGC5_TSI_SHIFT 00000006

Symbol: SIM_SCGC5_TSI_SHIFT
   Definitions
      At line 1820 in file MKL46Z4.s
   Uses
      None
Comment: SIM_SCGC5_TSI_SHIFT unused
SIM_SCGC6 4004803C

Symbol: SIM_SCGC6
   Definitions
      At line 1705 in file MKL46Z4.s
   Uses
      At line 1056 in file Exercise13.s
Comment: SIM_SCGC6 used once
SIM_SCGC6_ADC0_MASK 08000000

Symbol: SIM_SCGC6_ADC0_MASK
   Definitions
      At line 1843 in file MKL46Z4.s
   Uses



ARM Macro Assembler    Page 152 Alphabetic symbol ordering
Absolute symbols

      None
Comment: SIM_SCGC6_ADC0_MASK unused
SIM_SCGC6_ADC0_SHIFT 0000001B

Symbol: SIM_SCGC6_ADC0_SHIFT
   Definitions
      At line 1844 in file MKL46Z4.s
   Uses
      None
Comment: SIM_SCGC6_ADC0_SHIFT unused
SIM_SCGC6_DAC0_MASK 80000000

Symbol: SIM_SCGC6_DAC0_MASK
   Definitions
      At line 1839 in file MKL46Z4.s
   Uses
      None
Comment: SIM_SCGC6_DAC0_MASK unused
SIM_SCGC6_DAC0_SHIFT 0000001F

Symbol: SIM_SCGC6_DAC0_SHIFT
   Definitions
      At line 1840 in file MKL46Z4.s
   Uses
      None
Comment: SIM_SCGC6_DAC0_SHIFT unused
SIM_SCGC6_DMAMUX_MASK 00000002

Symbol: SIM_SCGC6_DMAMUX_MASK
   Definitions
      At line 1853 in file MKL46Z4.s
   Uses
      None
Comment: SIM_SCGC6_DMAMUX_MASK unused
SIM_SCGC6_DMAMUX_SHIFT 00000001

Symbol: SIM_SCGC6_DMAMUX_SHIFT
   Definitions
      At line 1854 in file MKL46Z4.s
   Uses
      None
Comment: SIM_SCGC6_DMAMUX_SHIFT unused
SIM_SCGC6_FTF_MASK 00000001

Symbol: SIM_SCGC6_FTF_MASK
   Definitions
      At line 1855 in file MKL46Z4.s
   Uses
      None
Comment: SIM_SCGC6_FTF_MASK unused
SIM_SCGC6_FTF_SHIFT 00000000

Symbol: SIM_SCGC6_FTF_SHIFT
   Definitions
      At line 1856 in file MKL46Z4.s
   Uses
      None
Comment: SIM_SCGC6_FTF_SHIFT unused
SIM_SCGC6_OFFSET 0000103C



ARM Macro Assembler    Page 153 Alphabetic symbol ordering
Absolute symbols


Symbol: SIM_SCGC6_OFFSET
   Definitions
      At line 1689 in file MKL46Z4.s
   Uses
      At line 1705 in file MKL46Z4.s
Comment: SIM_SCGC6_OFFSET used once
SIM_SCGC6_PIT_MASK 00800000

Symbol: SIM_SCGC6_PIT_MASK
   Definitions
      At line 1851 in file MKL46Z4.s
   Uses
      At line 1057 in file Exercise13.s
Comment: SIM_SCGC6_PIT_MASK used once
SIM_SCGC6_PIT_SHIFT 00000017

Symbol: SIM_SCGC6_PIT_SHIFT
   Definitions
      At line 1852 in file MKL46Z4.s
   Uses
      None
Comment: SIM_SCGC6_PIT_SHIFT unused
SIM_SCGC6_RTC_MASK 20000000

Symbol: SIM_SCGC6_RTC_MASK
   Definitions
      At line 1841 in file MKL46Z4.s
   Uses
      None
Comment: SIM_SCGC6_RTC_MASK unused
SIM_SCGC6_RTC_SHIFT 0000001D

Symbol: SIM_SCGC6_RTC_SHIFT
   Definitions
      At line 1842 in file MKL46Z4.s
   Uses
      None
Comment: SIM_SCGC6_RTC_SHIFT unused
SIM_SCGC6_TPM0_MASK 01000000

Symbol: SIM_SCGC6_TPM0_MASK
   Definitions
      At line 1849 in file MKL46Z4.s
   Uses
      None
Comment: SIM_SCGC6_TPM0_MASK unused
SIM_SCGC6_TPM0_SHIFT 00000018

Symbol: SIM_SCGC6_TPM0_SHIFT
   Definitions
      At line 1850 in file MKL46Z4.s
   Uses
      None
Comment: SIM_SCGC6_TPM0_SHIFT unused
SIM_SCGC6_TPM1_MASK 02000000

Symbol: SIM_SCGC6_TPM1_MASK
   Definitions



ARM Macro Assembler    Page 154 Alphabetic symbol ordering
Absolute symbols

      At line 1847 in file MKL46Z4.s
   Uses
      None
Comment: SIM_SCGC6_TPM1_MASK unused
SIM_SCGC6_TPM1_SHIFT 00000019

Symbol: SIM_SCGC6_TPM1_SHIFT
   Definitions
      At line 1848 in file MKL46Z4.s
   Uses
      None
Comment: SIM_SCGC6_TPM1_SHIFT unused
SIM_SCGC6_TPM2_MASK 04000000

Symbol: SIM_SCGC6_TPM2_MASK
   Definitions
      At line 1845 in file MKL46Z4.s
   Uses
      None
Comment: SIM_SCGC6_TPM2_MASK unused
SIM_SCGC6_TPM2_SHIFT 0000001A

Symbol: SIM_SCGC6_TPM2_SHIFT
   Definitions
      At line 1846 in file MKL46Z4.s
   Uses
      None
Comment: SIM_SCGC6_TPM2_SHIFT unused
SIM_SCGC7 40048040

Symbol: SIM_SCGC7
   Definitions
      At line 1706 in file MKL46Z4.s
   Uses
      None
Comment: SIM_SCGC7 unused
SIM_SCGC7_OFFSET 00001040

Symbol: SIM_SCGC7_OFFSET
   Definitions
      At line 1690 in file MKL46Z4.s
   Uses
      At line 1706 in file MKL46Z4.s
Comment: SIM_SCGC7_OFFSET used once
SIM_SDID 40048024

Symbol: SIM_SDID
   Definitions
      At line 1707 in file MKL46Z4.s
   Uses
      None
Comment: SIM_SDID unused
SIM_SDID_OFFSET 00001024

Symbol: SIM_SDID_OFFSET
   Definitions
      At line 1686 in file MKL46Z4.s
   Uses
      At line 1707 in file MKL46Z4.s



ARM Macro Assembler    Page 155 Alphabetic symbol ordering
Absolute symbols

Comment: SIM_SDID_OFFSET used once
SIM_SOPT1CFG 40047004

Symbol: SIM_SOPT1CFG
   Definitions
      At line 1708 in file MKL46Z4.s
   Uses
      None
Comment: SIM_SOPT1CFG unused
SIM_SOPT1CFG_OFFSET 00000004

Symbol: SIM_SOPT1CFG_OFFSET
   Definitions
      At line 1681 in file MKL46Z4.s
   Uses
      At line 1708 in file MKL46Z4.s
Comment: SIM_SOPT1CFG_OFFSET used once
SIM_SOPT2 40048004

Symbol: SIM_SOPT2
   Definitions
      At line 1709 in file MKL46Z4.s
   Uses
      None
Comment: SIM_SOPT2 unused
SIM_SOPT2_CLKOUTSEL_MASK 000000E0

Symbol: SIM_SOPT2_CLKOUTSEL_MASK
   Definitions
      At line 1900 in file MKL46Z4.s
   Uses
      None
Comment: SIM_SOPT2_CLKOUTSEL_MASK unused
SIM_SOPT2_CLKOUTSEL_SHIFT 00000005

Symbol: SIM_SOPT2_CLKOUTSEL_SHIFT
   Definitions
      At line 1901 in file MKL46Z4.s
   Uses
      None
Comment: SIM_SOPT2_CLKOUTSEL_SHIFT unused
SIM_SOPT2_OFFSET 00001004

Symbol: SIM_SOPT2_OFFSET
   Definitions
      At line 1682 in file MKL46Z4.s
   Uses
      At line 1709 in file MKL46Z4.s
Comment: SIM_SOPT2_OFFSET used once
SIM_SOPT2_PLLFLLSEL_MASK 00010000

Symbol: SIM_SOPT2_PLLFLLSEL_MASK
   Definitions
      At line 1898 in file MKL46Z4.s
   Uses
      None
Comment: SIM_SOPT2_PLLFLLSEL_MASK unused
SIM_SOPT2_PLLFLLSEL_SHIFT 00000010




ARM Macro Assembler    Page 156 Alphabetic symbol ordering
Absolute symbols

Symbol: SIM_SOPT2_PLLFLLSEL_SHIFT
   Definitions
      At line 1899 in file MKL46Z4.s
   Uses
      None
Comment: SIM_SOPT2_PLLFLLSEL_SHIFT unused
SIM_SOPT2_RTCCLKOUTSEL_MASK 00000010

Symbol: SIM_SOPT2_RTCCLKOUTSEL_MASK
   Definitions
      At line 1902 in file MKL46Z4.s
   Uses
      None
Comment: SIM_SOPT2_RTCCLKOUTSEL_MASK unused
SIM_SOPT2_RTCCLKOUTSEL_SHIFT 00000004

Symbol: SIM_SOPT2_RTCCLKOUTSEL_SHIFT
   Definitions
      At line 1903 in file MKL46Z4.s
   Uses
      None
Comment: SIM_SOPT2_RTCCLKOUTSEL_SHIFT unused
SIM_SOPT2_TPMSRC_MASK 03000000

Symbol: SIM_SOPT2_TPMSRC_MASK
   Definitions
      At line 1894 in file MKL46Z4.s
   Uses
      None
Comment: SIM_SOPT2_TPMSRC_MASK unused
SIM_SOPT2_TPMSRC_SHIFT 00000018

Symbol: SIM_SOPT2_TPMSRC_SHIFT
   Definitions
      At line 1895 in file MKL46Z4.s
   Uses
      None
Comment: SIM_SOPT2_TPMSRC_SHIFT unused
SIM_SOPT2_UART0SRC_MASK 0C000000

Symbol: SIM_SOPT2_UART0SRC_MASK
   Definitions
      At line 1892 in file MKL46Z4.s
   Uses
      None
Comment: SIM_SOPT2_UART0SRC_MASK unused
SIM_SOPT2_UART0SRC_SHIFT 0000001A

Symbol: SIM_SOPT2_UART0SRC_SHIFT
   Definitions
      At line 1893 in file MKL46Z4.s
   Uses
      None
Comment: SIM_SOPT2_UART0SRC_SHIFT unused
SIM_SOPT2_USBSRC_MASK 00040000

Symbol: SIM_SOPT2_USBSRC_MASK
   Definitions
      At line 1896 in file MKL46Z4.s



ARM Macro Assembler    Page 157 Alphabetic symbol ordering
Absolute symbols

   Uses
      None
Comment: SIM_SOPT2_USBSRC_MASK unused
SIM_SOPT2_USBSRC_SHIFT 00000012

Symbol: SIM_SOPT2_USBSRC_SHIFT
   Definitions
      At line 1897 in file MKL46Z4.s
   Uses
      None
Comment: SIM_SOPT2_USBSRC_SHIFT unused
SIM_SOPT4 4004800C

Symbol: SIM_SOPT4
   Definitions
      At line 1710 in file MKL46Z4.s
   Uses
      None
Comment: SIM_SOPT4 unused
SIM_SOPT4_OFFSET 0000100C

Symbol: SIM_SOPT4_OFFSET
   Definitions
      At line 1683 in file MKL46Z4.s
   Uses
      At line 1710 in file MKL46Z4.s
Comment: SIM_SOPT4_OFFSET used once
SIM_SOPT5 40048010

Symbol: SIM_SOPT5
   Definitions
      At line 1711 in file MKL46Z4.s
   Uses
      At line 988 in file Exercise13.s
Comment: SIM_SOPT5 used once
SIM_SOPT5_OFFSET 00001010

Symbol: SIM_SOPT5_OFFSET
   Definitions
      At line 1684 in file MKL46Z4.s
   Uses
      At line 1711 in file MKL46Z4.s
Comment: SIM_SOPT5_OFFSET used once
SIM_SOPT5_UART0ODE_MASK 00010000

Symbol: SIM_SOPT5_UART0ODE_MASK
   Definitions
      At line 1933 in file MKL46Z4.s
   Uses
      None
Comment: SIM_SOPT5_UART0ODE_MASK unused
SIM_SOPT5_UART0ODE_SHIFT 00000010

Symbol: SIM_SOPT5_UART0ODE_SHIFT
   Definitions
      At line 1934 in file MKL46Z4.s
   Uses
      None
Comment: SIM_SOPT5_UART0ODE_SHIFT unused



ARM Macro Assembler    Page 158 Alphabetic symbol ordering
Absolute symbols

SIM_SOPT5_UART0RXSRC_MASK 00000004

Symbol: SIM_SOPT5_UART0RXSRC_MASK
   Definitions
      At line 1939 in file MKL46Z4.s
   Uses
      None
Comment: SIM_SOPT5_UART0RXSRC_MASK unused
SIM_SOPT5_UART0RXSRC_SHIFT 00000002

Symbol: SIM_SOPT5_UART0RXSRC_SHIFT
   Definitions
      At line 1940 in file MKL46Z4.s
   Uses
      None
Comment: SIM_SOPT5_UART0RXSRC_SHIFT unused
SIM_SOPT5_UART0TXSRC_MASK 00000003

Symbol: SIM_SOPT5_UART0TXSRC_MASK
   Definitions
      At line 1941 in file MKL46Z4.s
   Uses
      None
Comment: SIM_SOPT5_UART0TXSRC_MASK unused
SIM_SOPT5_UART0TXSRC_SHIFT 00000000

Symbol: SIM_SOPT5_UART0TXSRC_SHIFT
   Definitions
      At line 1942 in file MKL46Z4.s
   Uses
      None
Comment: SIM_SOPT5_UART0TXSRC_SHIFT unused
SIM_SOPT5_UART1ODE_MASK 00020000

Symbol: SIM_SOPT5_UART1ODE_MASK
   Definitions
      At line 1931 in file MKL46Z4.s
   Uses
      At line 87 in file Exercise13.s
Comment: SIM_SOPT5_UART1ODE_MASK used once
SIM_SOPT5_UART1ODE_SHIFT 00000011

Symbol: SIM_SOPT5_UART1ODE_SHIFT
   Definitions
      At line 1932 in file MKL46Z4.s
   Uses
      None
Comment: SIM_SOPT5_UART1ODE_SHIFT unused
SIM_SOPT5_UART1RXSRC_MASK 00000040

Symbol: SIM_SOPT5_UART1RXSRC_MASK
   Definitions
      At line 1935 in file MKL46Z4.s
   Uses
      At line 87 in file Exercise13.s
Comment: SIM_SOPT5_UART1RXSRC_MASK used once
SIM_SOPT5_UART1RXSRC_SHIFT 00000006

Symbol: SIM_SOPT5_UART1RXSRC_SHIFT



ARM Macro Assembler    Page 159 Alphabetic symbol ordering
Absolute symbols

   Definitions
      At line 1936 in file MKL46Z4.s
   Uses
      None
Comment: SIM_SOPT5_UART1RXSRC_SHIFT unused
SIM_SOPT5_UART1TXSRC_MASK 00000030

Symbol: SIM_SOPT5_UART1TXSRC_MASK
   Definitions
      At line 1937 in file MKL46Z4.s
   Uses
      At line 87 in file Exercise13.s
Comment: SIM_SOPT5_UART1TXSRC_MASK used once
SIM_SOPT5_UART1TXSRC_SHIFT 00000004

Symbol: SIM_SOPT5_UART1TXSRC_SHIFT
   Definitions
      At line 1938 in file MKL46Z4.s
   Uses
      None
Comment: SIM_SOPT5_UART1TXSRC_SHIFT unused
SIM_SOPT5_UART1_EXTERN_MASK_CLEAR 00020070

Symbol: SIM_SOPT5_UART1_EXTERN_MASK_CLEAR
   Definitions
      At line 87 in file Exercise13.s
   Uses
      At line 989 in file Exercise13.s
Comment: SIM_SOPT5_UART1_EXTERN_MASK_CLEAR used once
SIM_SOPT5_UART2ODE_MASK 00040000

Symbol: SIM_SOPT5_UART2ODE_MASK
   Definitions
      At line 1929 in file MKL46Z4.s
   Uses
      None
Comment: SIM_SOPT5_UART2ODE_MASK unused
SIM_SOPT5_UART2ODE_SHIFT 00000012

Symbol: SIM_SOPT5_UART2ODE_SHIFT
   Definitions
      At line 1930 in file MKL46Z4.s
   Uses
      None
Comment: SIM_SOPT5_UART2ODE_SHIFT unused
SIM_SOPT7 40048018

Symbol: SIM_SOPT7
   Definitions
      At line 1712 in file MKL46Z4.s
   Uses
      None
Comment: SIM_SOPT7 unused
SIM_SOPT7_OFFSET 00001018

Symbol: SIM_SOPT7_OFFSET
   Definitions
      At line 1685 in file MKL46Z4.s
   Uses



ARM Macro Assembler    Page 160 Alphabetic symbol ordering
Absolute symbols

      At line 1712 in file MKL46Z4.s
Comment: SIM_SOPT7_OFFSET used once
SIM_SRVCOP 40048104

Symbol: SIM_SRVCOP
   Definitions
      At line 1713 in file MKL46Z4.s
   Uses
      None
Comment: SIM_SRVCOP unused
SIM_SRVCOP_OFFSET 00001104

Symbol: SIM_SRVCOP_OFFSET
   Definitions
      At line 1698 in file MKL46Z4.s
   Uses
      At line 1713 in file MKL46Z4.s
Comment: SIM_SRVCOP_OFFSET used once
SIM_UIDL 40048060

Symbol: SIM_UIDL
   Definitions
      At line 1714 in file MKL46Z4.s
   Uses
      None
Comment: SIM_UIDL unused
SIM_UIDL_OFFSET 00001060

Symbol: SIM_UIDL_OFFSET
   Definitions
      At line 1696 in file MKL46Z4.s
   Uses
      At line 1714 in file MKL46Z4.s
Comment: SIM_UIDL_OFFSET used once
SIM_UIDMH 40048058

Symbol: SIM_UIDMH
   Definitions
      At line 1715 in file MKL46Z4.s
   Uses
      None
Comment: SIM_UIDMH unused
SIM_UIDMH_OFFSET 00001058

Symbol: SIM_UIDMH_OFFSET
   Definitions
      At line 1694 in file MKL46Z4.s
   Uses
      At line 1715 in file MKL46Z4.s
Comment: SIM_UIDMH_OFFSET used once
SIM_UIDML 4004805C

Symbol: SIM_UIDML
   Definitions
      At line 1716 in file MKL46Z4.s
   Uses
      None
Comment: SIM_UIDML unused
SIM_UIDML_OFFSET 0000105C



ARM Macro Assembler    Page 161 Alphabetic symbol ordering
Absolute symbols


Symbol: SIM_UIDML_OFFSET
   Definitions
      At line 1695 in file MKL46Z4.s
   Uses
      At line 1716 in file MKL46Z4.s
Comment: SIM_UIDML_OFFSET used once
SPI0_IPR E000E408

Symbol: SPI0_IPR
   Definitions
      At line 991 in file MKL46Z4.s
   Uses
      None
Comment: SPI0_IPR unused
SPI0_IRQ 0000000A

Symbol: SPI0_IRQ
   Definitions
      At line 1061 in file MKL46Z4.s
   Uses
      At line 1095 in file MKL46Z4.s
Comment: SPI0_IRQ used once
SPI0_IRQ_MASK 00000400

Symbol: SPI0_IRQ_MASK
   Definitions
      At line 1095 in file MKL46Z4.s
   Uses
      None
Comment: SPI0_IRQ_MASK unused
SPI0_PRI_POS 00000016

Symbol: SPI0_PRI_POS
   Definitions
      At line 1027 in file MKL46Z4.s
   Uses
      None
Comment: SPI0_PRI_POS unused
SPI0_Vector 0000001A

Symbol: SPI0_Vector
   Definitions
      At line 1145 in file MKL46Z4.s
   Uses
      None
Comment: SPI0_Vector unused
SPI1_IPR E000E408

Symbol: SPI1_IPR
   Definitions
      At line 992 in file MKL46Z4.s
   Uses
      None
Comment: SPI1_IPR unused
SPI1_IRQ 0000000B

Symbol: SPI1_IRQ
   Definitions



ARM Macro Assembler    Page 162 Alphabetic symbol ordering
Absolute symbols

      At line 1062 in file MKL46Z4.s
   Uses
      At line 1096 in file MKL46Z4.s
Comment: SPI1_IRQ used once
SPI1_IRQ_MASK 00000800

Symbol: SPI1_IRQ_MASK
   Definitions
      At line 1096 in file MKL46Z4.s
   Uses
      None
Comment: SPI1_IRQ_MASK unused
SPI1_PRI_POS 0000001E

Symbol: SPI1_PRI_POS
   Definitions
      At line 1028 in file MKL46Z4.s
   Uses
      None
Comment: SPI1_PRI_POS unused
SPI1_Vector 0000001B

Symbol: SPI1_Vector
   Definitions
      At line 1146 in file MKL46Z4.s
   Uses
      None
Comment: SPI1_Vector unused
SVCall_Vector 0000000B

Symbol: SVCall_Vector
   Definitions
      At line 1130 in file MKL46Z4.s
   Uses
      None
Comment: SVCall_Vector unused
SysTick_Vector 0000000F

Symbol: SysTick_Vector
   Definitions
      At line 1134 in file MKL46Z4.s
   Uses
      None
Comment: SysTick_Vector unused
TMP0_IPR E000E410

Symbol: TMP0_IPR
   Definitions
      At line 998 in file MKL46Z4.s
   Uses
      None
Comment: TMP0_IPR unused
TMP0_IRQ 0000000F

Symbol: TMP0_IRQ
   Definitions
      At line 1068 in file MKL46Z4.s
   Uses
      At line 1102 in file MKL46Z4.s



ARM Macro Assembler    Page 163 Alphabetic symbol ordering
Absolute symbols

Comment: TMP0_IRQ used once
TMP0_IRQ_MASK 00008000

Symbol: TMP0_IRQ_MASK
   Definitions
      At line 1102 in file MKL46Z4.s
   Uses
      None
Comment: TMP0_IRQ_MASK unused
TMP0_PRI_POS 0000000E

Symbol: TMP0_PRI_POS
   Definitions
      At line 1034 in file MKL46Z4.s
   Uses
      None
Comment: TMP0_PRI_POS unused
TMP0_Vector 00000021

Symbol: TMP0_Vector
   Definitions
      At line 1152 in file MKL46Z4.s
   Uses
      None
Comment: TMP0_Vector unused
TPM1_IPR E000E410

Symbol: TPM1_IPR
   Definitions
      At line 999 in file MKL46Z4.s
   Uses
      None
Comment: TPM1_IPR unused
TPM1_IRQ 00000012

Symbol: TPM1_IRQ
   Definitions
      At line 1069 in file MKL46Z4.s
   Uses
      At line 1103 in file MKL46Z4.s
Comment: TPM1_IRQ used once
TPM1_IRQ_MASK 00040000

Symbol: TPM1_IRQ_MASK
   Definitions
      At line 1103 in file MKL46Z4.s
   Uses
      None
Comment: TPM1_IRQ_MASK unused
TPM1_PRI_POS 00000016

Symbol: TPM1_PRI_POS
   Definitions
      At line 1035 in file MKL46Z4.s
   Uses
      None
Comment: TPM1_PRI_POS unused
TPM1_Vector 00000022




ARM Macro Assembler    Page 164 Alphabetic symbol ordering
Absolute symbols

Symbol: TPM1_Vector
   Definitions
      At line 1153 in file MKL46Z4.s
   Uses
      None
Comment: TPM1_Vector unused
TPM2_BASE 4003A000

Symbol: TPM2_BASE
   Definitions
      At line 2130 in file MKL46Z4.s
   Uses
      At line 2131 in file MKL46Z4.s
      At line 2132 in file MKL46Z4.s
      At line 2133 in file MKL46Z4.s
      At line 2134 in file MKL46Z4.s
      At line 2135 in file MKL46Z4.s
      At line 2136 in file MKL46Z4.s
      At line 2137 in file MKL46Z4.s
      At line 2138 in file MKL46Z4.s
      At line 2139 in file MKL46Z4.s
      At line 2140 in file MKL46Z4.s
      At line 2141 in file MKL46Z4.s
      At line 2142 in file MKL46Z4.s
      At line 2143 in file MKL46Z4.s
      At line 2144 in file MKL46Z4.s
      At line 2145 in file MKL46Z4.s
      At line 2146 in file MKL46Z4.s
      At line 2147 in file MKL46Z4.s

TPM2_C0SC 4003A00C

Symbol: TPM2_C0SC
   Definitions
      At line 2134 in file MKL46Z4.s
   Uses
      None
Comment: TPM2_C0SC unused
TPM2_C0V 4003A010

Symbol: TPM2_C0V
   Definitions
      At line 2135 in file MKL46Z4.s
   Uses
      None
Comment: TPM2_C0V unused
TPM2_C1SC 4003A014

Symbol: TPM2_C1SC
   Definitions
      At line 2136 in file MKL46Z4.s
   Uses
      None
Comment: TPM2_C1SC unused
TPM2_C1V 4003A018

Symbol: TPM2_C1V
   Definitions
      At line 2137 in file MKL46Z4.s



ARM Macro Assembler    Page 165 Alphabetic symbol ordering
Absolute symbols

   Uses
      None
Comment: TPM2_C1V unused
TPM2_C2SC 4003A01C

Symbol: TPM2_C2SC
   Definitions
      At line 2138 in file MKL46Z4.s
   Uses
      None
Comment: TPM2_C2SC unused
TPM2_C2V 4003A020

Symbol: TPM2_C2V
   Definitions
      At line 2139 in file MKL46Z4.s
   Uses
      None
Comment: TPM2_C2V unused
TPM2_C3SC 4003A024

Symbol: TPM2_C3SC
   Definitions
      At line 2140 in file MKL46Z4.s
   Uses
      None
Comment: TPM2_C3SC unused
TPM2_C3V 4003A028

Symbol: TPM2_C3V
   Definitions
      At line 2141 in file MKL46Z4.s
   Uses
      None
Comment: TPM2_C3V unused
TPM2_C4SC 4003A02C

Symbol: TPM2_C4SC
   Definitions
      At line 2142 in file MKL46Z4.s
   Uses
      None
Comment: TPM2_C4SC unused
TPM2_C4V 4003A030

Symbol: TPM2_C4V
   Definitions
      At line 2143 in file MKL46Z4.s
   Uses
      None
Comment: TPM2_C4V unused
TPM2_C5SC 4003A034

Symbol: TPM2_C5SC
   Definitions
      At line 2144 in file MKL46Z4.s
   Uses
      None
Comment: TPM2_C5SC unused



ARM Macro Assembler    Page 166 Alphabetic symbol ordering
Absolute symbols

TPM2_C5V 4003A038

Symbol: TPM2_C5V
   Definitions
      At line 2145 in file MKL46Z4.s
   Uses
      None
Comment: TPM2_C5V unused
TPM2_CNT 4003A004

Symbol: TPM2_CNT
   Definitions
      At line 2132 in file MKL46Z4.s
   Uses
      None
Comment: TPM2_CNT unused
TPM2_CONF 4003A084

Symbol: TPM2_CONF
   Definitions
      At line 2147 in file MKL46Z4.s
   Uses
      None
Comment: TPM2_CONF unused
TPM2_IPR E000E410

Symbol: TPM2_IPR
   Definitions
      At line 1000 in file MKL46Z4.s
   Uses
      None
Comment: TPM2_IPR unused
TPM2_IRQ 00000013

Symbol: TPM2_IRQ
   Definitions
      At line 1070 in file MKL46Z4.s
   Uses
      At line 1104 in file MKL46Z4.s
Comment: TPM2_IRQ used once
TPM2_IRQ_MASK 00080000

Symbol: TPM2_IRQ_MASK
   Definitions
      At line 1104 in file MKL46Z4.s
   Uses
      None
Comment: TPM2_IRQ_MASK unused
TPM2_MOD 4003A008

Symbol: TPM2_MOD
   Definitions
      At line 2133 in file MKL46Z4.s
   Uses
      None
Comment: TPM2_MOD unused
TPM2_PRI_POS 0000001E

Symbol: TPM2_PRI_POS



ARM Macro Assembler    Page 167 Alphabetic symbol ordering
Absolute symbols

   Definitions
      At line 1036 in file MKL46Z4.s
   Uses
      None
Comment: TPM2_PRI_POS unused
TPM2_SC 4003A000

Symbol: TPM2_SC
   Definitions
      At line 2131 in file MKL46Z4.s
   Uses
      None
Comment: TPM2_SC unused
TPM2_STATUS 4003A050

Symbol: TPM2_STATUS
   Definitions
      At line 2146 in file MKL46Z4.s
   Uses
      None
Comment: TPM2_STATUS unused
TPM2_Vector 00000023

Symbol: TPM2_Vector
   Definitions
      At line 1154 in file MKL46Z4.s
   Uses
      None
Comment: TPM2_Vector unused
TPM_C0SC_OFFSET 0000000C

Symbol: TPM_C0SC_OFFSET
   Definitions
      At line 1948 in file MKL46Z4.s
   Uses
      At line 2134 in file MKL46Z4.s
Comment: TPM_C0SC_OFFSET used once
TPM_C0V_OFFSET 00000010

Symbol: TPM_C0V_OFFSET
   Definitions
      At line 1949 in file MKL46Z4.s
   Uses
      At line 2135 in file MKL46Z4.s
Comment: TPM_C0V_OFFSET used once
TPM_C1SC_OFFSET 00000014

Symbol: TPM_C1SC_OFFSET
   Definitions
      At line 1950 in file MKL46Z4.s
   Uses
      At line 2136 in file MKL46Z4.s
Comment: TPM_C1SC_OFFSET used once
TPM_C1V_OFFSET 00000018

Symbol: TPM_C1V_OFFSET
   Definitions
      At line 1951 in file MKL46Z4.s
   Uses



ARM Macro Assembler    Page 168 Alphabetic symbol ordering
Absolute symbols

      At line 2137 in file MKL46Z4.s
Comment: TPM_C1V_OFFSET used once
TPM_C2SC_OFFSET 0000001C

Symbol: TPM_C2SC_OFFSET
   Definitions
      At line 1952 in file MKL46Z4.s
   Uses
      At line 2138 in file MKL46Z4.s
Comment: TPM_C2SC_OFFSET used once
TPM_C2V_OFFSET 00000020

Symbol: TPM_C2V_OFFSET
   Definitions
      At line 1953 in file MKL46Z4.s
   Uses
      At line 2139 in file MKL46Z4.s
Comment: TPM_C2V_OFFSET used once
TPM_C3SC_OFFSET 00000024

Symbol: TPM_C3SC_OFFSET
   Definitions
      At line 1954 in file MKL46Z4.s
   Uses
      At line 2140 in file MKL46Z4.s
Comment: TPM_C3SC_OFFSET used once
TPM_C3V_OFFSET 00000028

Symbol: TPM_C3V_OFFSET
   Definitions
      At line 1955 in file MKL46Z4.s
   Uses
      At line 2141 in file MKL46Z4.s
Comment: TPM_C3V_OFFSET used once
TPM_C4SC_OFFSET 0000002C

Symbol: TPM_C4SC_OFFSET
   Definitions
      At line 1956 in file MKL46Z4.s
   Uses
      At line 2142 in file MKL46Z4.s
Comment: TPM_C4SC_OFFSET used once
TPM_C4V_OFFSET 00000030

Symbol: TPM_C4V_OFFSET
   Definitions
      At line 1957 in file MKL46Z4.s
   Uses
      At line 2143 in file MKL46Z4.s
Comment: TPM_C4V_OFFSET used once
TPM_C5SC_OFFSET 00000034

Symbol: TPM_C5SC_OFFSET
   Definitions
      At line 1958 in file MKL46Z4.s
   Uses
      At line 2144 in file MKL46Z4.s
Comment: TPM_C5SC_OFFSET used once
TPM_C5V_OFFSET 00000038



ARM Macro Assembler    Page 169 Alphabetic symbol ordering
Absolute symbols


Symbol: TPM_C5V_OFFSET
   Definitions
      At line 1959 in file MKL46Z4.s
   Uses
      At line 2145 in file MKL46Z4.s
Comment: TPM_C5V_OFFSET used once
TPM_CNT_OFFSET 00000004

Symbol: TPM_CNT_OFFSET
   Definitions
      At line 1946 in file MKL46Z4.s
   Uses
      At line 2132 in file MKL46Z4.s
Comment: TPM_CNT_OFFSET used once
TPM_CONF_CROT_MASK 00040000

Symbol: TPM_CONF_CROT_MASK
   Definitions
      At line 2054 in file MKL46Z4.s
   Uses
      None
Comment: TPM_CONF_CROT_MASK unused
TPM_CONF_CROT_SHIFT 00000012

Symbol: TPM_CONF_CROT_SHIFT
   Definitions
      At line 2055 in file MKL46Z4.s
   Uses
      None
Comment: TPM_CONF_CROT_SHIFT unused
TPM_CONF_CSOO_MASK 00020000

Symbol: TPM_CONF_CSOO_MASK
   Definitions
      At line 2056 in file MKL46Z4.s
   Uses
      None
Comment: TPM_CONF_CSOO_MASK unused
TPM_CONF_CSOO_SHIFT 00000011

Symbol: TPM_CONF_CSOO_SHIFT
   Definitions
      At line 2057 in file MKL46Z4.s
   Uses
      None
Comment: TPM_CONF_CSOO_SHIFT unused
TPM_CONF_CSOT_MASK 00010000

Symbol: TPM_CONF_CSOT_MASK
   Definitions
      At line 2058 in file MKL46Z4.s
   Uses
      None
Comment: TPM_CONF_CSOT_MASK unused
TPM_CONF_CSOT_SHIFT 00000010

Symbol: TPM_CONF_CSOT_SHIFT
   Definitions



ARM Macro Assembler    Page 170 Alphabetic symbol ordering
Absolute symbols

      At line 2059 in file MKL46Z4.s
   Uses
      None
Comment: TPM_CONF_CSOT_SHIFT unused
TPM_CONF_DBGMODE_MASK 000000C0

Symbol: TPM_CONF_DBGMODE_MASK
   Definitions
      At line 2062 in file MKL46Z4.s
   Uses
      None
Comment: TPM_CONF_DBGMODE_MASK unused
TPM_CONF_DBGMODE_SHIFT 00000006

Symbol: TPM_CONF_DBGMODE_SHIFT
   Definitions
      At line 2063 in file MKL46Z4.s
   Uses
      None
Comment: TPM_CONF_DBGMODE_SHIFT unused
TPM_CONF_DOZEEN_MASK 00000020

Symbol: TPM_CONF_DOZEEN_MASK
   Definitions
      At line 2064 in file MKL46Z4.s
   Uses
      None
Comment: TPM_CONF_DOZEEN_MASK unused
TPM_CONF_DOZEEN_SHIFT 00000005

Symbol: TPM_CONF_DOZEEN_SHIFT
   Definitions
      At line 2065 in file MKL46Z4.s
   Uses
      None
Comment: TPM_CONF_DOZEEN_SHIFT unused
TPM_CONF_GTBEEN_MASK 00000200

Symbol: TPM_CONF_GTBEEN_MASK
   Definitions
      At line 2060 in file MKL46Z4.s
   Uses
      None
Comment: TPM_CONF_GTBEEN_MASK unused
TPM_CONF_GTBEEN_SHIFT 00000009

Symbol: TPM_CONF_GTBEEN_SHIFT
   Definitions
      At line 2061 in file MKL46Z4.s
   Uses
      None
Comment: TPM_CONF_GTBEEN_SHIFT unused
TPM_CONF_OFFSET 00000084

Symbol: TPM_CONF_OFFSET
   Definitions
      At line 1961 in file MKL46Z4.s
   Uses
      At line 2147 in file MKL46Z4.s



ARM Macro Assembler    Page 171 Alphabetic symbol ordering
Absolute symbols

Comment: TPM_CONF_OFFSET used once
TPM_CONF_TRGSEL_MASK 0F000000

Symbol: TPM_CONF_TRGSEL_MASK
   Definitions
      At line 2052 in file MKL46Z4.s
   Uses
      None
Comment: TPM_CONF_TRGSEL_MASK unused
TPM_CONF_TRGSEL_SHIFT 00000018

Symbol: TPM_CONF_TRGSEL_SHIFT
   Definitions
      At line 2053 in file MKL46Z4.s
   Uses
      None
Comment: TPM_CONF_TRGSEL_SHIFT unused
TPM_CnSC_CDMA_MASK 00000001

Symbol: TPM_CnSC_CDMA_MASK
   Definitions
      At line 2002 in file MKL46Z4.s
   Uses
      None
Comment: TPM_CnSC_CDMA_MASK unused
TPM_CnSC_CDMA_SHIFT 00000000

Symbol: TPM_CnSC_CDMA_SHIFT
   Definitions
      At line 2003 in file MKL46Z4.s
   Uses
      None
Comment: TPM_CnSC_CDMA_SHIFT unused
TPM_CnSC_CHF_MASK 00000080

Symbol: TPM_CnSC_CHF_MASK
   Definitions
      At line 1990 in file MKL46Z4.s
   Uses
      None
Comment: TPM_CnSC_CHF_MASK unused
TPM_CnSC_CHF_SHIFT 00000007

Symbol: TPM_CnSC_CHF_SHIFT
   Definitions
      At line 1991 in file MKL46Z4.s
   Uses
      None
Comment: TPM_CnSC_CHF_SHIFT unused
TPM_CnSC_CHIE_MASK 00000040

Symbol: TPM_CnSC_CHIE_MASK
   Definitions
      At line 1992 in file MKL46Z4.s
   Uses
      None
Comment: TPM_CnSC_CHIE_MASK unused
TPM_CnSC_CHIE_SHIFT 00000006




ARM Macro Assembler    Page 172 Alphabetic symbol ordering
Absolute symbols

Symbol: TPM_CnSC_CHIE_SHIFT
   Definitions
      At line 1993 in file MKL46Z4.s
   Uses
      None
Comment: TPM_CnSC_CHIE_SHIFT unused
TPM_CnSC_ELSA_MASK 00000004

Symbol: TPM_CnSC_ELSA_MASK
   Definitions
      At line 2000 in file MKL46Z4.s
   Uses
      None
Comment: TPM_CnSC_ELSA_MASK unused
TPM_CnSC_ELSA_SHIFT 00000002

Symbol: TPM_CnSC_ELSA_SHIFT
   Definitions
      At line 2001 in file MKL46Z4.s
   Uses
      None
Comment: TPM_CnSC_ELSA_SHIFT unused
TPM_CnSC_ELSB_MASK 00000008

Symbol: TPM_CnSC_ELSB_MASK
   Definitions
      At line 1998 in file MKL46Z4.s
   Uses
      None
Comment: TPM_CnSC_ELSB_MASK unused
TPM_CnSC_ELSB_SHIFT 00000003

Symbol: TPM_CnSC_ELSB_SHIFT
   Definitions
      At line 1999 in file MKL46Z4.s
   Uses
      None
Comment: TPM_CnSC_ELSB_SHIFT unused
TPM_CnSC_MSA_MASK 00000010

Symbol: TPM_CnSC_MSA_MASK
   Definitions
      At line 1996 in file MKL46Z4.s
   Uses
      None
Comment: TPM_CnSC_MSA_MASK unused
TPM_CnSC_MSA_SHIFT 00000004

Symbol: TPM_CnSC_MSA_SHIFT
   Definitions
      At line 1997 in file MKL46Z4.s
   Uses
      None
Comment: TPM_CnSC_MSA_SHIFT unused
TPM_CnSC_MSB_MASK 00000020

Symbol: TPM_CnSC_MSB_MASK
   Definitions
      At line 1994 in file MKL46Z4.s



ARM Macro Assembler    Page 173 Alphabetic symbol ordering
Absolute symbols

   Uses
      None
Comment: TPM_CnSC_MSB_MASK unused
TPM_CnSC_MSB_SHIFT 00000005

Symbol: TPM_CnSC_MSB_SHIFT
   Definitions
      At line 1995 in file MKL46Z4.s
   Uses
      None
Comment: TPM_CnSC_MSB_SHIFT unused
TPM_CnV_VAL_MASK 0000FFFF

Symbol: TPM_CnV_VAL_MASK
   Definitions
      At line 2008 in file MKL46Z4.s
   Uses
      None
Comment: TPM_CnV_VAL_MASK unused
TPM_CnV_VAL_SHIFT 00000000

Symbol: TPM_CnV_VAL_SHIFT
   Definitions
      At line 2009 in file MKL46Z4.s
   Uses
      None
Comment: TPM_CnV_VAL_SHIFT unused
TPM_MOD_MOD_MASK 0000FFFF

Symbol: TPM_MOD_MOD_MASK
   Definitions
      At line 2070 in file MKL46Z4.s
   Uses
      None
Comment: TPM_MOD_MOD_MASK unused
TPM_MOD_MOD_SHIFT 0000FFFF

Symbol: TPM_MOD_MOD_SHIFT
   Definitions
      At line 2071 in file MKL46Z4.s
   Uses
      None
Comment: TPM_MOD_MOD_SHIFT unused
TPM_MOD_OFFSET 00000008

Symbol: TPM_MOD_OFFSET
   Definitions
      At line 1947 in file MKL46Z4.s
   Uses
      At line 2133 in file MKL46Z4.s
Comment: TPM_MOD_OFFSET used once
TPM_SC_CMOD_MASK 00000018

Symbol: TPM_SC_CMOD_MASK
   Definitions
      At line 2099 in file MKL46Z4.s
   Uses
      None
Comment: TPM_SC_CMOD_MASK unused



ARM Macro Assembler    Page 174 Alphabetic symbol ordering
Absolute symbols

TPM_SC_CMOD_SHIFT 00000003

Symbol: TPM_SC_CMOD_SHIFT
   Definitions
      At line 2100 in file MKL46Z4.s
   Uses
      None
Comment: TPM_SC_CMOD_SHIFT unused
TPM_SC_CPWMS_MASK 00000020

Symbol: TPM_SC_CPWMS_MASK
   Definitions
      At line 2097 in file MKL46Z4.s
   Uses
      None
Comment: TPM_SC_CPWMS_MASK unused
TPM_SC_CPWMS_SHIFT 00000005

Symbol: TPM_SC_CPWMS_SHIFT
   Definitions
      At line 2098 in file MKL46Z4.s
   Uses
      None
Comment: TPM_SC_CPWMS_SHIFT unused
TPM_SC_DMA_MASK 00000100

Symbol: TPM_SC_DMA_MASK
   Definitions
      At line 2091 in file MKL46Z4.s
   Uses
      None
Comment: TPM_SC_DMA_MASK unused
TPM_SC_DMA_SHIFT 00000008

Symbol: TPM_SC_DMA_SHIFT
   Definitions
      At line 2092 in file MKL46Z4.s
   Uses
      None
Comment: TPM_SC_DMA_SHIFT unused
TPM_SC_OFFSET 00000000

Symbol: TPM_SC_OFFSET
   Definitions
      At line 1945 in file MKL46Z4.s
   Uses
      At line 2131 in file MKL46Z4.s
Comment: TPM_SC_OFFSET used once
TPM_SC_PS_MASK 00000007

Symbol: TPM_SC_PS_MASK
   Definitions
      At line 2101 in file MKL46Z4.s
   Uses
      None
Comment: TPM_SC_PS_MASK unused
TPM_SC_PS_SHIFT 00000000

Symbol: TPM_SC_PS_SHIFT



ARM Macro Assembler    Page 175 Alphabetic symbol ordering
Absolute symbols

   Definitions
      At line 2102 in file MKL46Z4.s
   Uses
      None
Comment: TPM_SC_PS_SHIFT unused
TPM_SC_TOF_MASK 00000080

Symbol: TPM_SC_TOF_MASK
   Definitions
      At line 2093 in file MKL46Z4.s
   Uses
      None
Comment: TPM_SC_TOF_MASK unused
TPM_SC_TOF_SHIFT 00000007

Symbol: TPM_SC_TOF_SHIFT
   Definitions
      At line 2094 in file MKL46Z4.s
   Uses
      None
Comment: TPM_SC_TOF_SHIFT unused
TPM_SC_TOIE_MASK 00000040

Symbol: TPM_SC_TOIE_MASK
   Definitions
      At line 2095 in file MKL46Z4.s
   Uses
      None
Comment: TPM_SC_TOIE_MASK unused
TPM_SC_TOIE_SHIFT 00000006

Symbol: TPM_SC_TOIE_SHIFT
   Definitions
      At line 2096 in file MKL46Z4.s
   Uses
      None
Comment: TPM_SC_TOIE_SHIFT unused
TPM_STATUS_CH0F_MASK 00000001

Symbol: TPM_STATUS_CH0F_MASK
   Definitions
      At line 2126 in file MKL46Z4.s
   Uses
      None
Comment: TPM_STATUS_CH0F_MASK unused
TPM_STATUS_CH0F_SHIFT 00000000

Symbol: TPM_STATUS_CH0F_SHIFT
   Definitions
      At line 2127 in file MKL46Z4.s
   Uses
      None
Comment: TPM_STATUS_CH0F_SHIFT unused
TPM_STATUS_CH1F_MASK 00000002

Symbol: TPM_STATUS_CH1F_MASK
   Definitions
      At line 2124 in file MKL46Z4.s
   Uses



ARM Macro Assembler    Page 176 Alphabetic symbol ordering
Absolute symbols

      None
Comment: TPM_STATUS_CH1F_MASK unused
TPM_STATUS_CH1F_SHIFT 00000001

Symbol: TPM_STATUS_CH1F_SHIFT
   Definitions
      At line 2125 in file MKL46Z4.s
   Uses
      None
Comment: TPM_STATUS_CH1F_SHIFT unused
TPM_STATUS_CH2F_MASK 00000004

Symbol: TPM_STATUS_CH2F_MASK
   Definitions
      At line 2122 in file MKL46Z4.s
   Uses
      None
Comment: TPM_STATUS_CH2F_MASK unused
TPM_STATUS_CH2F_SHIFT 00000002

Symbol: TPM_STATUS_CH2F_SHIFT
   Definitions
      At line 2123 in file MKL46Z4.s
   Uses
      None
Comment: TPM_STATUS_CH2F_SHIFT unused
TPM_STATUS_CH3F_MASK 00000008

Symbol: TPM_STATUS_CH3F_MASK
   Definitions
      At line 2120 in file MKL46Z4.s
   Uses
      None
Comment: TPM_STATUS_CH3F_MASK unused
TPM_STATUS_CH3F_SHIFT 00000003

Symbol: TPM_STATUS_CH3F_SHIFT
   Definitions
      At line 2121 in file MKL46Z4.s
   Uses
      None
Comment: TPM_STATUS_CH3F_SHIFT unused
TPM_STATUS_CH4F_MASK 00000010

Symbol: TPM_STATUS_CH4F_MASK
   Definitions
      At line 2118 in file MKL46Z4.s
   Uses
      None
Comment: TPM_STATUS_CH4F_MASK unused
TPM_STATUS_CH4F_SHIFT 00000004

Symbol: TPM_STATUS_CH4F_SHIFT
   Definitions
      At line 2119 in file MKL46Z4.s
   Uses
      None
Comment: TPM_STATUS_CH4F_SHIFT unused
TPM_STATUS_CH5F_MASK 00000020



ARM Macro Assembler    Page 177 Alphabetic symbol ordering
Absolute symbols


Symbol: TPM_STATUS_CH5F_MASK
   Definitions
      At line 2116 in file MKL46Z4.s
   Uses
      None
Comment: TPM_STATUS_CH5F_MASK unused
TPM_STATUS_CH5F_SHIFT 00000005

Symbol: TPM_STATUS_CH5F_SHIFT
   Definitions
      At line 2117 in file MKL46Z4.s
   Uses
      None
Comment: TPM_STATUS_CH5F_SHIFT unused
TPM_STATUS_OFFSET 00000050

Symbol: TPM_STATUS_OFFSET
   Definitions
      At line 1960 in file MKL46Z4.s
   Uses
      At line 2146 in file MKL46Z4.s
Comment: TPM_STATUS_OFFSET used once
TPM_STATUS_TOF_MASK 00000100

Symbol: TPM_STATUS_TOF_MASK
   Definitions
      At line 2114 in file MKL46Z4.s
   Uses
      None
Comment: TPM_STATUS_TOF_MASK unused
TPM_STATUS_TOF_SHIFT 00000008

Symbol: TPM_STATUS_TOF_SHIFT
   Definitions
      At line 2115 in file MKL46Z4.s
   Uses
      None
Comment: TPM_STATUS_TOF_SHIFT unused
TSI0_IPR E000E418

Symbol: TSI0_IPR
   Definitions
      At line 1007 in file MKL46Z4.s
   Uses
      None
Comment: TSI0_IPR unused
TSI0_IRQ 0000001A

Symbol: TSI0_IRQ
   Definitions
      At line 1077 in file MKL46Z4.s
   Uses
      At line 1111 in file MKL46Z4.s
Comment: TSI0_IRQ used once
TSI0_IRQ_MASK 04000000

Symbol: TSI0_IRQ_MASK
   Definitions



ARM Macro Assembler    Page 178 Alphabetic symbol ordering
Absolute symbols

      At line 1111 in file MKL46Z4.s
   Uses
      None
Comment: TSI0_IRQ_MASK unused
TSI0_PRI_POS 00000016

Symbol: TSI0_PRI_POS
   Definitions
      At line 1043 in file MKL46Z4.s
   Uses
      None
Comment: TSI0_PRI_POS unused
TSI0_Vector 0000002A

Symbol: TSI0_Vector
   Definitions
      At line 1161 in file MKL46Z4.s
   Uses
      None
Comment: TSI0_Vector unused
UART0_IPR E000E40C

Symbol: UART0_IPR
   Definitions
      At line 993 in file MKL46Z4.s
   Uses
      None
Comment: UART0_IPR unused
UART0_IRQ 0000000C

Symbol: UART0_IRQ
   Definitions
      At line 1063 in file MKL46Z4.s
   Uses
      At line 1097 in file MKL46Z4.s
Comment: UART0_IRQ used once
UART0_IRQ_MASK 00001000

Symbol: UART0_IRQ_MASK
   Definitions
      At line 1097 in file MKL46Z4.s
   Uses
      None
Comment: UART0_IRQ_MASK unused
UART0_PRI_POS 00000006

Symbol: UART0_PRI_POS
   Definitions
      At line 1029 in file MKL46Z4.s
   Uses
      None
Comment: UART0_PRI_POS unused
UART0_Vector 0000001C

Symbol: UART0_Vector
   Definitions
      At line 1147 in file MKL46Z4.s
   Uses
      None



ARM Macro Assembler    Page 179 Alphabetic symbol ordering
Absolute symbols

Comment: UART0_Vector unused
UART1_BASE 4006B000

Symbol: UART1_BASE
   Definitions
      At line 2150 in file MKL46Z4.s
   Uses
      At line 2160 in file MKL46Z4.s
      At line 2161 in file MKL46Z4.s
      At line 2162 in file MKL46Z4.s
      At line 2163 in file MKL46Z4.s
      At line 2164 in file MKL46Z4.s
      At line 2165 in file MKL46Z4.s
      At line 2166 in file MKL46Z4.s
      At line 2167 in file MKL46Z4.s
      At line 2168 in file MKL46Z4.s
      At line 464 in file Exercise13.s
      At line 823 in file Exercise13.s
      At line 1018 in file Exercise13.s

UART1_BDH 4006B000

Symbol: UART1_BDH
   Definitions
      At line 2160 in file MKL46Z4.s
   Uses
      None
Comment: UART1_BDH unused
UART1_BDL 4006B001

Symbol: UART1_BDL
   Definitions
      At line 2161 in file MKL46Z4.s
   Uses
      None
Comment: UART1_BDL unused
UART1_C1 4006B002

Symbol: UART1_C1
   Definitions
      At line 2162 in file MKL46Z4.s
   Uses
      None
Comment: UART1_C1 unused
UART1_C2 4006B003

Symbol: UART1_C2
   Definitions
      At line 2163 in file MKL46Z4.s
   Uses
      None
Comment: UART1_C2 unused
UART1_C3 4006B006

Symbol: UART1_C3
   Definitions
      At line 2166 in file MKL46Z4.s
   Uses
      None



ARM Macro Assembler    Page 180 Alphabetic symbol ordering
Absolute symbols

Comment: UART1_C3 unused
UART1_C4 4006B008

Symbol: UART1_C4
   Definitions
      At line 2168 in file MKL46Z4.s
   Uses
      None
Comment: UART1_C4 unused
UART1_D 4006B007

Symbol: UART1_D
   Definitions
      At line 2167 in file MKL46Z4.s
   Uses
      None
Comment: UART1_D unused
UART1_IPR E000E40C

Symbol: UART1_IPR
   Definitions
      At line 994 in file MKL46Z4.s
   Uses
      At line 967 in file Exercise13.s
Comment: UART1_IPR used once
UART1_IRQ 0000000D

Symbol: UART1_IRQ
   Definitions
      At line 1064 in file MKL46Z4.s
   Uses
      At line 1098 in file MKL46Z4.s
Comment: UART1_IRQ used once
UART1_IRQ_MASK 00002000

Symbol: UART1_IRQ_MASK
   Definitions
      At line 1098 in file MKL46Z4.s
   Uses
      At line 962 in file Exercise13.s
Comment: UART1_IRQ_MASK used once
UART1_IRQ_PRI 00000003

Symbol: UART1_IRQ_PRI
   Definitions
      At line 36 in file Exercise13.s
   Uses
      At line 968 in file Exercise13.s
Comment: UART1_IRQ_PRI used once
UART1_PRI_POS 0000000E

Symbol: UART1_PRI_POS
   Definitions
      At line 1030 in file MKL46Z4.s
   Uses
      At line 968 in file Exercise13.s
Comment: UART1_PRI_POS used once
UART1_S1 4006B004




ARM Macro Assembler    Page 181 Alphabetic symbol ordering
Absolute symbols

Symbol: UART1_S1
   Definitions
      At line 2164 in file MKL46Z4.s
   Uses
      None
Comment: UART1_S1 unused
UART1_S2 4006B005

Symbol: UART1_S2
   Definitions
      At line 2165 in file MKL46Z4.s
   Uses
      None
Comment: UART1_S2 unused
UART1_Vector 0000001D

Symbol: UART1_Vector
   Definitions
      At line 1148 in file MKL46Z4.s
   Uses
      None
Comment: UART1_Vector unused
UART2_IPR E000E40C

Symbol: UART2_IPR
   Definitions
      At line 995 in file MKL46Z4.s
   Uses
      None
Comment: UART2_IPR unused
UART2_IRQ 0000000E

Symbol: UART2_IRQ
   Definitions
      At line 1065 in file MKL46Z4.s
   Uses
      At line 1099 in file MKL46Z4.s
Comment: UART2_IRQ used once
UART2_IRQ_MASK 00004000

Symbol: UART2_IRQ_MASK
   Definitions
      At line 1099 in file MKL46Z4.s
   Uses
      None
Comment: UART2_IRQ_MASK unused
UART2_PRI_POS 00000016

Symbol: UART2_PRI_POS
   Definitions
      At line 1031 in file MKL46Z4.s
   Uses
      None
Comment: UART2_PRI_POS unused
UART2_Vector 0000001E

Symbol: UART2_Vector
   Definitions
      At line 1149 in file MKL46Z4.s



ARM Macro Assembler    Page 182 Alphabetic symbol ordering
Absolute symbols

   Uses
      None
Comment: UART2_Vector unused
UART_BDH_9600 00000000

Symbol: UART_BDH_9600
   Definitions
      At line 98 in file Exercise13.s
   Uses
      At line 1022 in file Exercise13.s
Comment: UART_BDH_9600 used once
UART_BDH_LBKDIE_MASK 00000080

Symbol: UART_BDH_LBKDIE_MASK
   Definitions
      At line 2175 in file MKL46Z4.s
   Uses
      None
Comment: UART_BDH_LBKDIE_MASK unused
UART_BDH_LBKDIE_SHIFT 00000007

Symbol: UART_BDH_LBKDIE_SHIFT
   Definitions
      At line 2176 in file MKL46Z4.s
   Uses
      None
Comment: UART_BDH_LBKDIE_SHIFT unused
UART_BDH_OFFSET 00000000

Symbol: UART_BDH_OFFSET
   Definitions
      At line 2151 in file MKL46Z4.s
   Uses
      At line 2160 in file MKL46Z4.s
      At line 1023 in file Exercise13.s

UART_BDH_RXEDGIE_MASK 00000040

Symbol: UART_BDH_RXEDGIE_MASK
   Definitions
      At line 2177 in file MKL46Z4.s
   Uses
      None
Comment: UART_BDH_RXEDGIE_MASK unused
UART_BDH_RXEDGIE_SHIFT 00000006

Symbol: UART_BDH_RXEDGIE_SHIFT
   Definitions
      At line 2178 in file MKL46Z4.s
   Uses
      None
Comment: UART_BDH_RXEDGIE_SHIFT unused
UART_BDH_SBNS_MASK 00000020

Symbol: UART_BDH_SBNS_MASK
   Definitions
      At line 2179 in file MKL46Z4.s
   Uses
      None



ARM Macro Assembler    Page 183 Alphabetic symbol ordering
Absolute symbols

Comment: UART_BDH_SBNS_MASK unused
UART_BDH_SBNS_SHIFT 00000005

Symbol: UART_BDH_SBNS_SHIFT
   Definitions
      At line 2180 in file MKL46Z4.s
   Uses
      None
Comment: UART_BDH_SBNS_SHIFT unused
UART_BDH_SBR_MASK 0000001F

Symbol: UART_BDH_SBR_MASK
   Definitions
      At line 2181 in file MKL46Z4.s
   Uses
      None
Comment: UART_BDH_SBR_MASK unused
UART_BDH_SBR_SHIFT 00000000

Symbol: UART_BDH_SBR_SHIFT
   Definitions
      At line 2182 in file MKL46Z4.s
   Uses
      None
Comment: UART_BDH_SBR_SHIFT unused
UART_BDL_9600 0000009C

Symbol: UART_BDL_9600
   Definitions
      At line 106 in file Exercise13.s
   Uses
      At line 1024 in file Exercise13.s
Comment: UART_BDL_9600 used once
UART_BDL_OFFSET 00000001

Symbol: UART_BDL_OFFSET
   Definitions
      At line 2152 in file MKL46Z4.s
   Uses
      At line 2161 in file MKL46Z4.s
      At line 1025 in file Exercise13.s

UART_BDL_SBR_MASK 000000FF

Symbol: UART_BDL_SBR_MASK
   Definitions
      At line 2186 in file MKL46Z4.s
   Uses
      None
Comment: UART_BDL_SBR_MASK unused
UART_BDL_SBR_SHIFT 00000000

Symbol: UART_BDL_SBR_SHIFT
   Definitions
      At line 2187 in file MKL46Z4.s
   Uses
      None
Comment: UART_BDL_SBR_SHIFT unused
UART_C1_8N1 00000000



ARM Macro Assembler    Page 184 Alphabetic symbol ordering
Absolute symbols


Symbol: UART_C1_8N1
   Definitions
      At line 117 in file Exercise13.s
   Uses
      At line 1028 in file Exercise13.s
Comment: UART_C1_8N1 used once
UART_C1_ILT_MASK 00000004

Symbol: UART_C1_ILT_MASK
   Definitions
      At line 2208 in file MKL46Z4.s
   Uses
      None
Comment: UART_C1_ILT_MASK unused
UART_C1_ILT_SHIFT 00000002

Symbol: UART_C1_ILT_SHIFT
   Definitions
      At line 2209 in file MKL46Z4.s
   Uses
      None
Comment: UART_C1_ILT_SHIFT unused
UART_C1_LOOPS_MASK 00000080

Symbol: UART_C1_LOOPS_MASK
   Definitions
      At line 2198 in file MKL46Z4.s
   Uses
      None
Comment: UART_C1_LOOPS_MASK unused
UART_C1_LOOPS_SHIFT 00000007

Symbol: UART_C1_LOOPS_SHIFT
   Definitions
      At line 2199 in file MKL46Z4.s
   Uses
      None
Comment: UART_C1_LOOPS_SHIFT unused
UART_C1_M_MASK 00000010

Symbol: UART_C1_M_MASK
   Definitions
      At line 2204 in file MKL46Z4.s
   Uses
      None
Comment: UART_C1_M_MASK unused
UART_C1_M_SHIFT 00000004

Symbol: UART_C1_M_SHIFT
   Definitions
      At line 2205 in file MKL46Z4.s
   Uses
      None
Comment: UART_C1_M_SHIFT unused
UART_C1_OFFSET 00000002

Symbol: UART_C1_OFFSET
   Definitions



ARM Macro Assembler    Page 185 Alphabetic symbol ordering
Absolute symbols

      At line 2153 in file MKL46Z4.s
   Uses
      At line 2162 in file MKL46Z4.s
      At line 1029 in file Exercise13.s

UART_C1_PE_MASK 00000002

Symbol: UART_C1_PE_MASK
   Definitions
      At line 2210 in file MKL46Z4.s
   Uses
      None
Comment: UART_C1_PE_MASK unused
UART_C1_PE_SHIFT 00000001

Symbol: UART_C1_PE_SHIFT
   Definitions
      At line 2211 in file MKL46Z4.s
   Uses
      None
Comment: UART_C1_PE_SHIFT unused
UART_C1_PT_MASK 00000001

Symbol: UART_C1_PT_MASK
   Definitions
      At line 2212 in file MKL46Z4.s
   Uses
      None
Comment: UART_C1_PT_MASK unused
UART_C1_PT_SHIFT 00000000

Symbol: UART_C1_PT_SHIFT
   Definitions
      At line 2213 in file MKL46Z4.s
   Uses
      None
Comment: UART_C1_PT_SHIFT unused
UART_C1_RSRC_MASK 00000020

Symbol: UART_C1_RSRC_MASK
   Definitions
      At line 2202 in file MKL46Z4.s
   Uses
      None
Comment: UART_C1_RSRC_MASK unused
UART_C1_RSRC_SHIFT 00000005

Symbol: UART_C1_RSRC_SHIFT
   Definitions
      At line 2203 in file MKL46Z4.s
   Uses
      None
Comment: UART_C1_RSRC_SHIFT unused
UART_C1_UARTSWAI_MASK 00000040

Symbol: UART_C1_UARTSWAI_MASK
   Definitions
      At line 2200 in file MKL46Z4.s
   Uses



ARM Macro Assembler    Page 186 Alphabetic symbol ordering
Absolute symbols

      None
Comment: UART_C1_UARTSWAI_MASK unused
UART_C1_UARTSWAI_SHIFT 00000006

Symbol: UART_C1_UARTSWAI_SHIFT
   Definitions
      At line 2201 in file MKL46Z4.s
   Uses
      None
Comment: UART_C1_UARTSWAI_SHIFT unused
UART_C1_WAKE_MASK 00000008

Symbol: UART_C1_WAKE_MASK
   Definitions
      At line 2206 in file MKL46Z4.s
   Uses
      None
Comment: UART_C1_WAKE_MASK unused
UART_C1_WAKE_SHIFT 00000003

Symbol: UART_C1_WAKE_SHIFT
   Definitions
      At line 2207 in file MKL46Z4.s
   Uses
      None
Comment: UART_C1_WAKE_SHIFT unused
UART_C2_ILIE_MASK 00000010

Symbol: UART_C2_ILIE_MASK
   Definitions
      At line 2230 in file MKL46Z4.s
   Uses
      None
Comment: UART_C2_ILIE_MASK unused
UART_C2_ILIE_SHIFT 00000004

Symbol: UART_C2_ILIE_SHIFT
   Definitions
      At line 2231 in file MKL46Z4.s
   Uses
      None
Comment: UART_C2_ILIE_SHIFT unused
UART_C2_OFFSET 00000003

Symbol: UART_C2_OFFSET
   Definitions
      At line 2154 in file MKL46Z4.s
   Uses
      At line 2163 in file MKL46Z4.s
      At line 466 in file Exercise13.s
      At line 483 in file Exercise13.s
      At line 825 in file Exercise13.s
      At line 1040 in file Exercise13.s

UART_C2_RE_MASK 00000004

Symbol: UART_C2_RE_MASK
   Definitions
      At line 2234 in file MKL46Z4.s



ARM Macro Assembler    Page 187 Alphabetic symbol ordering
Absolute symbols

   Uses
      At line 38 in file Exercise13.s
      At line 39 in file Exercise13.s
      At line 128 in file Exercise13.s

UART_C2_RE_SHIFT 00000002

Symbol: UART_C2_RE_SHIFT
   Definitions
      At line 2235 in file MKL46Z4.s
   Uses
      None
Comment: UART_C2_RE_SHIFT unused
UART_C2_RIE_MASK 00000020

Symbol: UART_C2_RIE_MASK
   Definitions
      At line 2228 in file MKL46Z4.s
   Uses
      At line 38 in file Exercise13.s
      At line 39 in file Exercise13.s

UART_C2_RIE_SHIFT 00000005

Symbol: UART_C2_RIE_SHIFT
   Definitions
      At line 2229 in file MKL46Z4.s
   Uses
      None
Comment: UART_C2_RIE_SHIFT unused
UART_C2_RWU_MASK 00000002

Symbol: UART_C2_RWU_MASK
   Definitions
      At line 2236 in file MKL46Z4.s
   Uses
      None
Comment: UART_C2_RWU_MASK unused
UART_C2_RWU_SHIFT 00000001

Symbol: UART_C2_RWU_SHIFT
   Definitions
      At line 2237 in file MKL46Z4.s
   Uses
      None
Comment: UART_C2_RWU_SHIFT unused
UART_C2_SBK_MASK 00000001

Symbol: UART_C2_SBK_MASK
   Definitions
      At line 2238 in file MKL46Z4.s
   Uses
      None
Comment: UART_C2_SBK_MASK unused
UART_C2_SBK_SHIFT 00000000

Symbol: UART_C2_SBK_SHIFT
   Definitions
      At line 2239 in file MKL46Z4.s



ARM Macro Assembler    Page 188 Alphabetic symbol ordering
Absolute symbols

   Uses
      None
Comment: UART_C2_SBK_SHIFT unused
UART_C2_TCIE_MASK 00000040

Symbol: UART_C2_TCIE_MASK
   Definitions
      At line 2226 in file MKL46Z4.s
   Uses
      None
Comment: UART_C2_TCIE_MASK unused
UART_C2_TCIE_SHIFT 00000006

Symbol: UART_C2_TCIE_SHIFT
   Definitions
      At line 2227 in file MKL46Z4.s
   Uses
      None
Comment: UART_C2_TCIE_SHIFT unused
UART_C2_TE_MASK 00000008

Symbol: UART_C2_TE_MASK
   Definitions
      At line 2232 in file MKL46Z4.s
   Uses
      At line 38 in file Exercise13.s
      At line 39 in file Exercise13.s
      At line 128 in file Exercise13.s

UART_C2_TE_SHIFT 00000003

Symbol: UART_C2_TE_SHIFT
   Definitions
      At line 2233 in file MKL46Z4.s
   Uses
      None
Comment: UART_C2_TE_SHIFT unused
UART_C2_TIE_MASK 00000080

Symbol: UART_C2_TIE_MASK
   Definitions
      At line 2224 in file MKL46Z4.s
   Uses
      At line 39 in file Exercise13.s
      At line 465 in file Exercise13.s

UART_C2_TIE_SHIFT 00000007

Symbol: UART_C2_TIE_SHIFT
   Definitions
      At line 2225 in file MKL46Z4.s
   Uses
      None
Comment: UART_C2_TIE_SHIFT unused
UART_C2_TI_RI 000000AC

Symbol: UART_C2_TI_RI
   Definitions
      At line 39 in file Exercise13.s



ARM Macro Assembler    Page 189 Alphabetic symbol ordering
Absolute symbols

   Uses
      At line 824 in file Exercise13.s
Comment: UART_C2_TI_RI used once
UART_C2_T_R 0000000C

Symbol: UART_C2_T_R
   Definitions
      At line 128 in file Exercise13.s
   Uses
      None
Comment: UART_C2_T_R unused
UART_C2_T_RI 0000002C

Symbol: UART_C2_T_RI
   Definitions
      At line 38 in file Exercise13.s
   Uses
      At line 482 in file Exercise13.s
      At line 1039 in file Exercise13.s

UART_C3_FEIE_MASK 00000002

Symbol: UART_C3_FEIE_MASK
   Definitions
      At line 2262 in file MKL46Z4.s
   Uses
      None
Comment: UART_C3_FEIE_MASK unused
UART_C3_FEIE_SHIFT 00000001

Symbol: UART_C3_FEIE_SHIFT
   Definitions
      At line 2263 in file MKL46Z4.s
   Uses
      None
Comment: UART_C3_FEIE_SHIFT unused
UART_C3_NEIE_MASK 00000004

Symbol: UART_C3_NEIE_MASK
   Definitions
      At line 2260 in file MKL46Z4.s
   Uses
      None
Comment: UART_C3_NEIE_MASK unused
UART_C3_NEIE_SHIFT 00000002

Symbol: UART_C3_NEIE_SHIFT
   Definitions
      At line 2261 in file MKL46Z4.s
   Uses
      None
Comment: UART_C3_NEIE_SHIFT unused
UART_C3_NO_TXINV 00000000

Symbol: UART_C3_NO_TXINV
   Definitions
      At line 139 in file Exercise13.s
   Uses
      At line 1030 in file Exercise13.s



ARM Macro Assembler    Page 190 Alphabetic symbol ordering
Absolute symbols

Comment: UART_C3_NO_TXINV used once
UART_C3_OFFSET 00000006

Symbol: UART_C3_OFFSET
   Definitions
      At line 2157 in file MKL46Z4.s
   Uses
      At line 2166 in file MKL46Z4.s
      At line 1031 in file Exercise13.s

UART_C3_ORIE_MASK 00000008

Symbol: UART_C3_ORIE_MASK
   Definitions
      At line 2258 in file MKL46Z4.s
   Uses
      None
Comment: UART_C3_ORIE_MASK unused
UART_C3_ORIE_SHIFT 00000003

Symbol: UART_C3_ORIE_SHIFT
   Definitions
      At line 2259 in file MKL46Z4.s
   Uses
      None
Comment: UART_C3_ORIE_SHIFT unused
UART_C3_PEIE_MASK 00000001

Symbol: UART_C3_PEIE_MASK
   Definitions
      At line 2264 in file MKL46Z4.s
   Uses
      None
Comment: UART_C3_PEIE_MASK unused
UART_C3_PEIE_SHIFT 00000000

Symbol: UART_C3_PEIE_SHIFT
   Definitions
      At line 2265 in file MKL46Z4.s
   Uses
      None
Comment: UART_C3_PEIE_SHIFT unused
UART_C3_R8_MASK 00000080

Symbol: UART_C3_R8_MASK
   Definitions
      At line 2250 in file MKL46Z4.s
   Uses
      None
Comment: UART_C3_R8_MASK unused
UART_C3_R8_SHIFT 00000007

Symbol: UART_C3_R8_SHIFT
   Definitions
      At line 2251 in file MKL46Z4.s
   Uses
      None
Comment: UART_C3_R8_SHIFT unused
UART_C3_T8_MASK 00000040



ARM Macro Assembler    Page 191 Alphabetic symbol ordering
Absolute symbols


Symbol: UART_C3_T8_MASK
   Definitions
      At line 2252 in file MKL46Z4.s
   Uses
      None
Comment: UART_C3_T8_MASK unused
UART_C3_T8_SHIFT 00000006

Symbol: UART_C3_T8_SHIFT
   Definitions
      At line 2253 in file MKL46Z4.s
   Uses
      None
Comment: UART_C3_T8_SHIFT unused
UART_C3_TXDIR_MASK 00000020

Symbol: UART_C3_TXDIR_MASK
   Definitions
      At line 2254 in file MKL46Z4.s
   Uses
      None
Comment: UART_C3_TXDIR_MASK unused
UART_C3_TXDIR_SHIFT 00000005

Symbol: UART_C3_TXDIR_SHIFT
   Definitions
      At line 2255 in file MKL46Z4.s
   Uses
      None
Comment: UART_C3_TXDIR_SHIFT unused
UART_C3_TXINV_MASK 00000010

Symbol: UART_C3_TXINV_MASK
   Definitions
      At line 2256 in file MKL46Z4.s
   Uses
      None
Comment: UART_C3_TXINV_MASK unused
UART_C3_TXINV_SHIFT 00000004

Symbol: UART_C3_TXINV_SHIFT
   Definitions
      At line 2257 in file MKL46Z4.s
   Uses
      None
Comment: UART_C3_TXINV_SHIFT unused
UART_C4_NO_DMA 00000000

Symbol: UART_C4_NO_DMA
   Definitions
      At line 148 in file Exercise13.s
   Uses
      At line 1032 in file Exercise13.s
Comment: UART_C4_NO_DMA used once
UART_C4_OFFSET 00000008

Symbol: UART_C4_OFFSET
   Definitions



ARM Macro Assembler    Page 192 Alphabetic symbol ordering
Absolute symbols

      At line 2159 in file MKL46Z4.s
   Uses
      At line 2168 in file MKL46Z4.s
      At line 1033 in file Exercise13.s

UART_C4_RDMAS_MASK 00000020

Symbol: UART_C4_RDMAS_MASK
   Definitions
      At line 2276 in file MKL46Z4.s
   Uses
      None
Comment: UART_C4_RDMAS_MASK unused
UART_C4_RDMAS_SHIFT 00000005

Symbol: UART_C4_RDMAS_SHIFT
   Definitions
      At line 2277 in file MKL46Z4.s
   Uses
      None
Comment: UART_C4_RDMAS_SHIFT unused
UART_C4_TDMAS_MASK 00000080

Symbol: UART_C4_TDMAS_MASK
   Definitions
      At line 2274 in file MKL46Z4.s
   Uses
      None
Comment: UART_C4_TDMAS_MASK unused
UART_C4_TDMAS_SHIFT 00000007

Symbol: UART_C4_TDMAS_SHIFT
   Definitions
      At line 2275 in file MKL46Z4.s
   Uses
      None
Comment: UART_C4_TDMAS_SHIFT unused
UART_D_OFFSET 00000007

Symbol: UART_D_OFFSET
   Definitions
      At line 2158 in file MKL46Z4.s
   Uses
      At line 2167 in file MKL46Z4.s
      At line 478 in file Exercise13.s
      At line 491 in file Exercise13.s

UART_S1_FE_MASK 00000002

Symbol: UART_S1_FE_MASK
   Definitions
      At line 2300 in file MKL46Z4.s
   Uses
      None
Comment: UART_S1_FE_MASK unused
UART_S1_FE_SHIFT 00000001

Symbol: UART_S1_FE_SHIFT
   Definitions



ARM Macro Assembler    Page 193 Alphabetic symbol ordering
Absolute symbols

      At line 2301 in file MKL46Z4.s
   Uses
      None
Comment: UART_S1_FE_SHIFT unused
UART_S1_IDLE_MASK 00000010

Symbol: UART_S1_IDLE_MASK
   Definitions
      At line 2294 in file MKL46Z4.s
   Uses
      None
Comment: UART_S1_IDLE_MASK unused
UART_S1_IDLE_SHIFT 00000004

Symbol: UART_S1_IDLE_SHIFT
   Definitions
      At line 2295 in file MKL46Z4.s
   Uses
      None
Comment: UART_S1_IDLE_SHIFT unused
UART_S1_NF_MASK 00000004

Symbol: UART_S1_NF_MASK
   Definitions
      At line 2298 in file MKL46Z4.s
   Uses
      None
Comment: UART_S1_NF_MASK unused
UART_S1_NF_SHIFT 00000002

Symbol: UART_S1_NF_SHIFT
   Definitions
      At line 2299 in file MKL46Z4.s
   Uses
      None
Comment: UART_S1_NF_SHIFT unused
UART_S1_OFFSET 00000004

Symbol: UART_S1_OFFSET
   Definitions
      At line 2155 in file MKL46Z4.s
   Uses
      At line 2164 in file MKL46Z4.s
      At line 471 in file Exercise13.s
      At line 486 in file Exercise13.s
      At line 488 in file Exercise13.s

UART_S1_OR_MASK 00000008

Symbol: UART_S1_OR_MASK
   Definitions
      At line 2296 in file MKL46Z4.s
   Uses
      None
Comment: UART_S1_OR_MASK unused
UART_S1_OR_SHIFT 00000003

Symbol: UART_S1_OR_SHIFT
   Definitions



ARM Macro Assembler    Page 194 Alphabetic symbol ordering
Absolute symbols

      At line 2297 in file MKL46Z4.s
   Uses
      None
Comment: UART_S1_OR_SHIFT unused
UART_S1_PF_MASK 00000001

Symbol: UART_S1_PF_MASK
   Definitions
      At line 2302 in file MKL46Z4.s
   Uses
      None
Comment: UART_S1_PF_MASK unused
UART_S1_PF_SHIFT 00000000

Symbol: UART_S1_PF_SHIFT
   Definitions
      At line 2303 in file MKL46Z4.s
   Uses
      None
Comment: UART_S1_PF_SHIFT unused
UART_S1_RDRF_MASK 00000020

Symbol: UART_S1_RDRF_MASK
   Definitions
      At line 2292 in file MKL46Z4.s
   Uses
      At line 487 in file Exercise13.s
Comment: UART_S1_RDRF_MASK used once
UART_S1_RDRF_SHIFT 00000005

Symbol: UART_S1_RDRF_SHIFT
   Definitions
      At line 2293 in file MKL46Z4.s
   Uses
      None
Comment: UART_S1_RDRF_SHIFT unused
UART_S1_TC_MASK 00000040

Symbol: UART_S1_TC_MASK
   Definitions
      At line 2290 in file MKL46Z4.s
   Uses
      None
Comment: UART_S1_TC_MASK unused
UART_S1_TC_SHIFT 00000006

Symbol: UART_S1_TC_SHIFT
   Definitions
      At line 2291 in file MKL46Z4.s
   Uses
      None
Comment: UART_S1_TC_SHIFT unused
UART_S1_TDRE_MASK 00000080

Symbol: UART_S1_TDRE_MASK
   Definitions
      At line 2288 in file MKL46Z4.s
   Uses
      At line 470 in file Exercise13.s



ARM Macro Assembler    Page 195 Alphabetic symbol ordering
Absolute symbols

Comment: UART_S1_TDRE_MASK used once
UART_S1_TDRE_SHIFT 00000007

Symbol: UART_S1_TDRE_SHIFT
   Definitions
      At line 2289 in file MKL46Z4.s
   Uses
      None
Comment: UART_S1_TDRE_SHIFT unused
UART_S2_BRK13_MASK 00000004

Symbol: UART_S2_BRK13_MASK
   Definitions
      At line 2322 in file MKL46Z4.s
   Uses
      None
Comment: UART_S2_BRK13_MASK unused
UART_S2_BRK13_SHIFT 00000002

Symbol: UART_S2_BRK13_SHIFT
   Definitions
      At line 2323 in file MKL46Z4.s
   Uses
      None
Comment: UART_S2_BRK13_SHIFT unused
UART_S2_LBKDE_MASK 00000002

Symbol: UART_S2_LBKDE_MASK
   Definitions
      At line 2324 in file MKL46Z4.s
   Uses
      None
Comment: UART_S2_LBKDE_MASK unused
UART_S2_LBKDE_SHIFT 00000001

Symbol: UART_S2_LBKDE_SHIFT
   Definitions
      At line 2325 in file MKL46Z4.s
   Uses
      None
Comment: UART_S2_LBKDE_SHIFT unused
UART_S2_LBKDIF_MASK 00000080

Symbol: UART_S2_LBKDIF_MASK
   Definitions
      At line 2314 in file MKL46Z4.s
   Uses
      None
Comment: UART_S2_LBKDIF_MASK unused
UART_S2_LBKDIF_SHIFT 00000007

Symbol: UART_S2_LBKDIF_SHIFT
   Definitions
      At line 2315 in file MKL46Z4.s
   Uses
      None
Comment: UART_S2_LBKDIF_SHIFT unused
UART_S2_NO_RXINV_BRK10_NO_LBKDETECT 00000000




ARM Macro Assembler    Page 196 Alphabetic symbol ordering
Absolute symbols

Symbol: UART_S2_NO_RXINV_BRK10_NO_LBKDETECT
   Definitions
      At line 159 in file Exercise13.s
   Uses
      At line 1034 in file Exercise13.s
Comment: UART_S2_NO_RXINV_BRK10_NO_LBKDETECT used once
UART_S2_OFFSET 00000005

Symbol: UART_S2_OFFSET
   Definitions
      At line 2156 in file MKL46Z4.s
   Uses
      At line 2165 in file MKL46Z4.s
      At line 1035 in file Exercise13.s

UART_S2_RAF_MASK 00000001

Symbol: UART_S2_RAF_MASK
   Definitions
      At line 2326 in file MKL46Z4.s
   Uses
      None
Comment: UART_S2_RAF_MASK unused
UART_S2_RAF_SHIFT 00000000

Symbol: UART_S2_RAF_SHIFT
   Definitions
      At line 2327 in file MKL46Z4.s
   Uses
      None
Comment: UART_S2_RAF_SHIFT unused
UART_S2_RWUID_MASK 00000008

Symbol: UART_S2_RWUID_MASK
   Definitions
      At line 2320 in file MKL46Z4.s
   Uses
      None
Comment: UART_S2_RWUID_MASK unused
UART_S2_RWUID_SHIFT 00000003

Symbol: UART_S2_RWUID_SHIFT
   Definitions
      At line 2321 in file MKL46Z4.s
   Uses
      None
Comment: UART_S2_RWUID_SHIFT unused
UART_S2_RXEDGIF_MASK 00000040

Symbol: UART_S2_RXEDGIF_MASK
   Definitions
      At line 2316 in file MKL46Z4.s
   Uses
      None
Comment: UART_S2_RXEDGIF_MASK unused
UART_S2_RXEDGIF_SHIF 00000006

Symbol: UART_S2_RXEDGIF_SHIF
   Definitions



ARM Macro Assembler    Page 197 Alphabetic symbol ordering
Absolute symbols

      At line 2317 in file MKL46Z4.s
   Uses
      None
Comment: UART_S2_RXEDGIF_SHIF unused
UART_S2_RXINV_MASK 00000010

Symbol: UART_S2_RXINV_MASK
   Definitions
      At line 2318 in file MKL46Z4.s
   Uses
      None
Comment: UART_S2_RXINV_MASK unused
UART_S2_RXINV_SHIFT 00000004

Symbol: UART_S2_RXINV_SHIFT
   Definitions
      At line 2319 in file MKL46Z4.s
   Uses
      None
Comment: UART_S2_RXINV_SHIFT unused
USB0_IPR E000E418

Symbol: USB0_IPR
   Definitions
      At line 1005 in file MKL46Z4.s
   Uses
      None
Comment: USB0_IPR unused
USB0_IRQ 00000018

Symbol: USB0_IRQ
   Definitions
      At line 1075 in file MKL46Z4.s
   Uses
      At line 1109 in file MKL46Z4.s
Comment: USB0_IRQ used once
USB0_IRQ_MASK 01000000

Symbol: USB0_IRQ_MASK
   Definitions
      At line 1109 in file MKL46Z4.s
   Uses
      None
Comment: USB0_IRQ_MASK unused
USB0_PRI_POS 00000006

Symbol: USB0_PRI_POS
   Definitions
      At line 1041 in file MKL46Z4.s
   Uses
      None
Comment: USB0_PRI_POS unused
USB0_Vector 00000028

Symbol: USB0_Vector
   Definitions
      At line 1159 in file MKL46Z4.s
   Uses
      None



ARM Macro Assembler    Page 198 Alphabetic symbol ordering
Absolute symbols

Comment: USB0_Vector unused
VECTOR_SIZE 00000004

Symbol: VECTOR_SIZE
   Definitions
      At line 32 in file MKL46Z4.s
   Uses
      None
Comment: VECTOR_SIZE unused
VECTOR_TABLE_SIZE 000000C0

Symbol: VECTOR_TABLE_SIZE
   Definitions
      At line 31 in file MKL46Z4.s
   Uses
      None
Comment: VECTOR_TABLE_SIZE unused
WORD_SIZE 00000004

Symbol: WORD_SIZE
   Definitions
      At line 23 in file MKL46Z4.s
   Uses
      None
Comment: WORD_SIZE unused
__Vectors_Size 000000C0

Symbol: __Vectors_Size
   Definitions
      At line 1167 in file Exercise13.s
   Uses
      At line 1111 in file Exercise13.s
Comment: __Vectors_Size used once
max_lowercase 0000007A

Symbol: max_lowercase
   Definitions
      At line 31 in file Exercise13.s
   Uses
      None
Comment: max_lowercase unused
min_lowercase 00000061

Symbol: min_lowercase
   Definitions
      At line 30 in file Exercise13.s
   Uses
      None
Comment: min_lowercase unused
1398 symbols



ARM Macro Assembler    Page 1 Alphabetic symbol ordering
External symbols

Dummy_Handler 00000000

Symbol: Dummy_Handler
   Definitions
      At line 1113 in file Exercise13.s
   Uses
      At line 1118 in file Exercise13.s
      At line 1119 in file Exercise13.s
      At line 1120 in file Exercise13.s
      At line 1121 in file Exercise13.s
      At line 1122 in file Exercise13.s
      At line 1123 in file Exercise13.s
      At line 1124 in file Exercise13.s
      At line 1125 in file Exercise13.s
      At line 1126 in file Exercise13.s
      At line 1127 in file Exercise13.s
      At line 1128 in file Exercise13.s
      At line 1129 in file Exercise13.s
      At line 1130 in file Exercise13.s
      At line 1132 in file Exercise13.s
      At line 1133 in file Exercise13.s
      At line 1134 in file Exercise13.s
      At line 1135 in file Exercise13.s
      At line 1136 in file Exercise13.s
      At line 1137 in file Exercise13.s
      At line 1138 in file Exercise13.s
      At line 1139 in file Exercise13.s
      At line 1141 in file Exercise13.s
      At line 1142 in file Exercise13.s
      At line 1143 in file Exercise13.s
      At line 1144 in file Exercise13.s
      At line 1145 in file Exercise13.s
      At line 1146 in file Exercise13.s
      At line 1148 in file Exercise13.s
      At line 1149 in file Exercise13.s
      At line 1150 in file Exercise13.s
      At line 1151 in file Exercise13.s
      At line 1152 in file Exercise13.s
      At line 1153 in file Exercise13.s
      At line 1154 in file Exercise13.s
      At line 1155 in file Exercise13.s
      At line 1157 in file Exercise13.s
      At line 1158 in file Exercise13.s
      At line 1159 in file Exercise13.s
      At line 1160 in file Exercise13.s
      At line 1161 in file Exercise13.s
      At line 1162 in file Exercise13.s
      At line 1163 in file Exercise13.s
      At line 1164 in file Exercise13.s
      At line 1165 in file Exercise13.s

Startup 00000000

Symbol: Startup
   Definitions
      At line 170 in file Exercise13.s
   Uses
      At line 177 in file Exercise13.s
Comment: Startup used once



ARM Macro Assembler    Page 2 Alphabetic symbol ordering
External symbols

__initial_sp 00000000

Symbol: __initial_sp
   Definitions
      At line 1112 in file Exercise13.s
   Uses
      At line 1116 in file Exercise13.s
Comment: __initial_sp used once
3 symbols
1854 symbols in table
